(lp0
(dp1
(Vt
p2
Vo
p3
tp4
I6
s(Vthe
p5
tp6
I6
s(Vm
p7
Ve
p8
Va
p9
tp10
I1
s(Vl
p11
Vi
p12
Vk
p13
tp14
I1
s(g11
g8
tp15
I7
s(Vr
p16
g8
tp17
I5
s((Vagain
p18
S'RB'
p19
tp20
tp21
I2
s(Vwill
p22
tp23
I2
s(Vcorrective
p24
Vchanges
p25
Vbefore
p26
g5
tp27
I1
s(Vto
p28
tp29
I4
s(Vc
p30
g11
g8
g9
tp31
I1
s((Vlikely
p32
S'RB'
p33
tp34
(g22
S'MD'
p35
tp36
(Vmean
p37
S'VB'
p38
tp39
tp40
I1
s(g16
g3
Vb
p41
g11
tp42
I2
s((g25
S'NNS'
p43
tp44
(g26
S'IN'
p45
tp46
(g5
S'DT'
p47
tp48
(Vshuttle
p49
S'JJ'
p50
tp51
tp52
I1
s(VThe
p53
Vproblem
p54
tp55
I2
s(g16
g2
Vs
p56
tp57
I1
s(g12
Vn
p58
Vg
p59
tp60
I1
s((Vflying
p61
S'VBG'
p62
tp63
g20
tp64
I1
s(g16
g8
g30
tp65
I2
s((g24
g50
tp66
g44
g46
tp67
I1
s((Vproblem
p68
S'NN'
p69
tp70
(Vneeds
p71
S'VBZ'
p72
tp73
tp74
I1
s(g54
g32
g22
tp75
I2
s(g32
tp76
I2
s(g49
tp77
I4
s((Vsaid
p78
S'VBD'
p79
tp80
(Vthe
p81
g47
tp82
g70
tp83
I1
s(Vfleet
p84
tp85
I4
s(g11
g8
g9
g16
tp86
I1
s(VT
p87
Vh
p88
g8
tp89
I2
s(g46
tp90
I2
s(Vfly
p91
tp92
I2
s((Vspace
p93
S'NN'
p94
tp95
(Vshuttle
p96
S'NN'
p97
tp98
(Vfleet
p99
g97
tp100
(Vis
p101
S'VBZ'
p102
tp103
tp104
I1
s(Vthe
p105
g93
tp106
I2
s(g51
(g84
g97
tp107
tp108
I1
s(g9
g12
Vd
p109
tp110
I1
s(Vneed
p111
g28
Vbe
p112
tp113
I1
s(g80
g82
tp114
I1
s(g20
(V.
p115
S'.'
p116
tp117
tp118
I2
s(g26
g5
tp119
I4
s((VHe
p120
S'PRP'
p121
tp122
tp123
I1
s(g112
tp124
I2
s(g9
g58
tp125
I2
s(g99
g101
Vcleared
p126
Vto
p127
tp128
I2
s(g120
g78
g81
tp129
I2
s(g22
g37
g24
Vchange
p130
tp131
I1
s(g2
g8
g109
tp132
I1
s(g44
g46
tp133
I1
s(g11
g8
g9
tp134
I1
s(g103
(g126
S'VBN'
p135
tp136
(g127
S'TO'
p137
tp138
tp139
I1
s((g91
g38
tp140
(Vagain
p141
g19
tp142
tp143
I1
s(g122
g80
g82
g70
tp144
I1
s(g3
g41
g11
tp145
I2
s(g78
g81
g68
g111
tp146
I1
s(g54
tp147
I4
s((g112
S'VB'
p148
tp149
tp150
I1
s(g12
g11
tp151
I1
s(g138
g140
tp152
I1
s(g16
g8
g109
tp153
I1
s(g61
g18
g115
tp154
I2
s((Vcorrected
p155
g135
tp156
(Vbefore
p157
g45
tp158
(g105
g47
tp159
g95
tp160
I1
s(g37
g24
g25
g26
tp161
I1
s(g8
g8
g109
g56
tp162
I1
s(g88
g8
tp163
I4
s(Vf
p164
g3
g16
g8
tp165
I2
s(g16
g3
g41
tp166
I2
s(g127
g91
g141
tp167
I2
s(g138
g140
g142
(g115
g116
tp168
tp169
I1
s(g2
g88
g8
tp170
I6
s(g126
tp171
I2
s(g18
tp172
I4
s(g164
g3
g16
tp173
I2
s(g156
tp174
I1
s(g56
Vp
p175
g9
g30
tp176
I1
s((g28
g137
tp177
g149
g156
g158
tp178
I1
s(g2
g12
tp179
I1
s(g87
g88
tp180
I1
s(g61
g18
tp181
I2
s(g9
g16
g8
tp182
I1
s(g127
g91
g141
g115
tp183
I2
s(g56
g88
Vu
p184
g2
tp185
I2
s(g8
g2
tp186
I2
s(g12
g11
g11
tp187
I1
s(g12
g58
tp188
I3
s(g16
g2
tp189
I1
s(g8
g164
tp190
I2
s(g13
g8
tp191
I1
s(g13
g8
g11
Vy
p192
tp193
I1
s((g53
S'DT'
p194
tp195
(g54
g69
tp196
tp197
I1
s(g88
g9
tp198
I1
s(g18
g115
tp199
I4
s(g37
tp200
I2
s(g78
g81
g68
tp201
I2
s(g28
g112
g155
tp202
I2
s(g12
g13
g8
g11
tp203
I1
s(g122
g80
g82
tp204
I1
s(g164
g11
g8
tp205
I2
s(g68
g71
g28
g112
tp206
I1
s(g103
g136
g138
g140
tp207
I1
s(g82
g70
tp208
I1
s(g12
g13
g8
tp209
I1
s(Vstarts
p210
tp211
I1
s(g112
g155
g157
tp212
I2
s(g7
g8
tp213
I1
s(g24
g25
tp214
I1
s(g58
g8
tp215
I1
s(g130
g26
tp216
I1
s(g25
g26
g5
g49
tp217
I1
s(g56
g9
g12
tp218
I1
s(g68
g71
g28
tp219
I1
s(g11
g11
tp220
I1
s(g81
g68
tp221
I2
s(g195
g196
g34
tp222
I1
s(g81
g68
g71
g28
tp223
I1
s(g88
g9
g58
tp224
I1
s(g98
tp225
I1
s(g68
g71
tp226
I1
s(g158
g159
g95
g98
tp227
I1
s(g9
g12
g58
tp228
I2
s(Vstart
p229
tp230
I1
s(g8
g30
tp231
I2
s(g58
g59
g8
g56
tp232
I1
s(g111
g28
g112
g155
tp233
I1
s(g63
tp234
I1
s(g159
g95
g98
g100
tp235
I1
s(g25
g26
tp236
I1
s(g140
g142
g168
tp237
I1
s(g39
g66
tp238
I1
s(g9
g16
g8
g109
tp239
I1
s(g22
g37
tp240
I2
s(g30
g2
tp241
I2
s(g30
g2
g12
Vv
p242
tp243
I1
s(g93
g96
g99
tp244
I2
s(g9
g59
g9
tp245
I2
s(g107
(g210
g43
tp246
g63
g20
tp247
I1
s(g126
g127
tp248
I2
s(g30
g2
g8
tp249
I1
s(g11
g8
g8
g2
tp250
I2
s(g156
g158
g159
tp251
I1
s(g3
g41
tp252
I2
s(g8
g9
tp253
I2
s(g210
g61
g18
tp254
I1
s(g2
g11
g8
tp255
I2
s(g126
g127
g91
g141
tp256
I2
s(g8
g9
g16
tp257
I1
s(g107
g246
tp258
I1
s(g84
g229
g61
g18
tp259
I1
s(g177
g149
g156
tp260
I1
s(g58
g59
g8
tp261
I1
s(g101
tp262
I2
s(g155
g157
tp263
I2
s(g93
tp264
I2
s(g46
g48
tp265
I2
s(g2
g56
tp266
I1
s(g9
g30
g8
tp267
I1
s(g136
g138
g140
g142
tp268
I1
s(g30
g88
tp269
I1
s(g155
g157
g105
tp270
I2
s(g229
g61
tp271
I1
s(Vw
p272
g12
g11
g11
tp273
I1
s(g246
tp274
I1
s(g111
g28
tp275
I1
s(g28
g112
g155
g157
tp276
I2
s(g210
g61
tp277
I1
s(g44
tp278
I1
s(g73
g177
tp279
I1
s(g70
g73
g177
tp280
I1
s(g54
g32
tp281
I2
s(g73
g177
g149
tp282
I1
s(g58
g8
g8
tp283
I1
s(g96
g99
g101
tp284
I2
s(g39
g66
g44
tp285
I1
s(g229
g61
g18
g115
tp286
I1
s(g25
tp287
I1
s(g175
g9
g30
tp288
I1
s(g155
tp289
I2
s(g56
g2
g9
g16
tp290
I1
s(g73
g177
g149
g156
tp291
I1
s(g32
g22
g37
g24
tp292
I2
s(g54
g32
g22
g37
tp293
I2
s(g9
g12
tp294
I3
s(g30
g8
tp295
I1
s(g71
g28
tp296
I1
s(g49
g84
g229
g61
tp297
I1
s(g99
g101
g126
tp298
I2
s(g66
tp299
I1
s(g5
g49
g84
g210
tp300
I1
s(g107
g246
g63
tp301
I1
s(VH
p302
g8
tp303
I3
s(g30
g88
g9
g58
tp304
I1
s(g22
g37
g24
g25
tp305
I1
s(g164
g3
tp306
I2
s(g2
g2
g11
g8
tp307
I2
s(g157
g105
g93
g96
tp308
I2
s(g149
g156
g158
g159
tp309
I1
s(g11
g192
tp310
I3
s(g9
g16
g2
tp311
I1
s(g34
g36
g39
g66
tp312
I1
s(g84
g210
g61
tp313
I1
s(g91
g141
g115
tp314
I2
s(g78
g81
tp315
I2
s(g66
g44
g46
g48
tp316
I1
s(g25
g26
g5
tp317
I1
s(g229
g61
g18
tp318
I1
s(g37
g24
g130
g26
tp319
I1
s(g30
g3
g16
g16
tp320
I2
s(g49
g84
g210
g61
tp321
I1
s(g66
g44
tp322
I1
s(g140
tp323
I1
s(g49
g84
tp324
I4
s(g8
g164
g3
g16
tp325
I2
s(g16
g16
g8
tp326
I2
s(g26
g5
g49
g84
tp327
I2
s(g39
g66
g44
g46
tp328
I1
s(g59
g9
g12
tp329
I2
s(g2
g9
g16
tp330
I1
s(g63
g20
g117
tp331
I1
s(g8
g30
g2
g12
tp332
I1
s(g93
g96
g99
g101
tp333
I2
s(g12
g242
tp334
I1
s(g82
g70
g73
tp335
I1
s(g8
g8
g109
tp336
I1
s(g177
tp337
I2
s(g8
g11
g192
tp338
I1
s(g84
g229
g61
tp339
I1
s(g5
g49
g84
g229
tp340
I1
s(g41
g8
g164
g3
tp341
I2
s(g49
g84
g210
tp342
I1
s(g246
g63
tp343
I1
s(g246
g63
g20
g117
tp344
I1
s(g2
g11
tp345
I2
s(g2
g2
g11
tp346
I2
s(g184
g2
tp347
I2
s(g7
g8
g9
g58
tp348
I1
s(g12
g13
tp349
I1
s(g210
g61
g18
g115
tp350
I1
s(g136
g138
tp351
I1
s(g103
g136
tp352
I1
s(g138
g140
g142
tp353
I1
s(g61
tp354
I2
s(g41
g11
g8
tp355
I2
s(g41
g8
tp356
I5
s(g84
g210
tp357
I1
s(g99
g101
tp358
I2
s(g157
g105
g93
tp359
I2
s(g88
g184
g2
tp360
I2
s(g136
g138
g140
tp361
I1
s(g30
g88
g9
tp362
I1
s(g117
tp363
I2
s(g107
tp364
I2
s(g78
tp365
I2
s(g177
g149
tp366
I1
s(g59
g9
tp367
I2
s(g56
g175
tp368
I1
s(g196
g34
g36
g39
tp369
I1
s(g8
g9
g58
tp370
I1
s(g164
g11
g8
g8
tp371
I2
s(g11
g8
g7
tp372
I2
s(g80
g82
g70
g73
tp373
I1
s(g53
tp374
I2
s(g175
g9
g30
g8
tp375
I1
s(g88
g184
g2
g2
tp376
I2
s(g53
g54
g32
g22
tp377
I2
s(g127
g91
tp378
I2
s(g59
g8
g56
tp379
I1
s(g93
g96
tp380
I2
s(g130
tp381
I1
s(g70
g73
g177
g149
tp382
I1
s(g30
g11
tp383
I1
s(g101
g126
tp384
I2
s(g24
tp385
I2
s(g8
g8
g2
tp386
I2
s(g80
tp387
I1
s(g175
g16
g3
tp388
I2
s(g8
g8
tp389
I3
s(g56
g175
g9
tp390
I1
s(g16
g16
tp391
I2
s(g8
g109
tp392
I3
s(g73
tp393
I1
s(g122
g80
tp394
I1
s(g101
g126
g127
tp395
I2
s(g24
g130
tp396
I1
s(g2
g88
tp397
I3
s(g195
g196
g34
g36
tp398
I1
s(g11
g8
g8
tp399
I2
s(g9
g16
g2
g56
tp400
I1
s(g120
g78
tp401
I2
s(g56
g2
tp402
I1
s(g159
g95
g98
tp403
I1
s(g26
g5
g49
tp404
I2
s(g100
g103
tp405
I1
s(g136
tp406
I1
s(g49
g84
g229
tp407
I1
s(g96
g99
g101
g126
tp408
I2
s(g11
g192
g12
tp409
I1
s(g24
g130
g26
tp410
I1
s(g81
g68
g71
tp411
I1
s(g175
g9
tp412
I1
s(g164
g11
tp413
I4
s(g196
g34
tp414
I1
s(g59
g8
tp415
I1
s(g37
g24
g130
tp416
I1
s(g81
g68
g111
tp417
I1
s(g195
tp418
I1
s(g103
tp419
I1
s(g2
g12
g242
g8
tp420
I1
s(g115
tp421
I10
s(g71
g28
g112
g155
tp422
I1
s(g126
g127
g91
tp423
I2
s(g39
tp424
I1
s(g88
g184
tp425
I2
s(g100
g103
g136
g138
tp426
I1
s(g149
g156
g158
tp427
I1
s(g98
g100
g103
g136
tp428
I1
s(g51
g107
g246
tp429
I1
s(g101
g126
g127
g91
tp430
I2
s(g5
g49
g84
tp431
I2
s(g32
g22
tp432
I2
s(g3
g41
g11
g8
tp433
I2
s(g100
g103
g136
tp434
I1
s(g44
g46
g48
tp435
I1
s(g149
g156
tp436
I1
s(g46
g48
g51
g107
tp437
I1
s(g71
g28
g112
tp438
I1
s(g11
g192
g12
g58
tp439
I1
s(g30
g2
g12
tp440
I1
s(g9
g30
tp441
I1
s(g84
g229
tp442
I1
s(g13
g8
g11
tp443
I1
s(g41
g8
g164
tp444
I2
s(g56
g2
g9
tp445
I1
s(g112
g155
g157
g105
tp446
I2
s(g48
g51
g107
tp447
I1
s(g24
g130
g26
g5
tp448
I1
s(g30
g3
g16
tp449
I2
s(g24
g25
g26
tp450
I1
s(g184
g2
g2
g11
tp451
I2
s(g130
g26
g5
tp452
I1
s(g8
g30
g2
tp453
I2
s(g2
g2
tp454
I2
s(g41
g11
tp455
I2
s(g3
g16
tp456
I4
s(g71
tp457
I1
s(g105
g93
g96
tp458
I2
s(g9
g59
g9
g12
tp459
I2
s(g59
g9
g12
g58
tp460
I2
s(g120
tp461
I2
s(g175
g16
tp462
I2
s(g3
g16
g8
tp463
I2
s(g36
g39
g66
tp464
I1
s(g51
g107
g246
g63
tp465
I1
s(g30
g3
tp466
I2
s(g9
g58
g59
g8
tp467
I1
s(g88
g9
g58
g59
tp468
I1
s(g164
g11
g192
tp469
I3
s(g11
g12
g13
g8
tp470
I1
s(g58
g8
g8
g109
tp471
I1
s(g16
g3
tp472
I2
s(g48
g51
tp473
I1
s(g56
g88
g184
tp474
I2
s(g9
g59
tp475
I2
s(g58
g59
tp476
I2
s(g34
g36
tp477
I1
s(g68
g111
g28
g112
tp478
I1
s(g192
g12
g58
tp479
I1
s(g130
g26
g5
g49
tp480
I1
s(g8
g56
tp481
I1
s(g3
g16
g16
tp482
I2
s(g3
g16
g16
g8
tp483
I2
s(g30
g11
g8
tp484
I1
s(g2
g8
tp485
I1
s(g36
tp486
I1
s(g8
g164
g3
tp487
I2
s(g48
tp488
I3
s(g196
tp489
I2
s(g184
g2
g2
tp490
I2
s(g98
g100
tp491
I1
s(g8
g109
g56
tp492
I1
s(g95
g98
g100
tp493
I1
s(g68
g111
tp494
I1
s(g9
g58
g59
tp495
I1
s(g192
g12
g58
g59
tp496
I1
s(g16
g8
g30
g2
tp497
I2
s(g8
g11
tp498
I1
s(g2
g12
g242
tp499
I1
s(g12
g56
tp500
I3
s(g272
g12
g11
tp501
I1
s(g164
g11
g192
g12
tp502
I1
s(g51
tp503
I1
s(g84
g210
g61
g18
tp504
I1
s(g242
g8
tp505
I1
s(g5
g49
tp506
I2
s(g22
g37
g24
tp507
I2
s(g48
g51
g107
g246
tp508
I1
s(g82
g70
g73
g177
tp509
I1
s(g53
g54
g32
tp510
I2
s(g109
g56
tp511
I1
s(g34
tp512
I1
s(g36
g39
g66
g44
tp513
I1
s(g12
g242
g8
tp514
I1
s(g98
g100
g103
tp515
I1
s(g78
g81
g68
g71
tp516
I1
s(g11
g12
tp517
I1
s(g155
g157
g105
g93
tp518
I2
s(g12
g109
tp519
I1
s(g95
g98
tp520
I1
s(g32
g22
g37
tp521
I2
s(g26
tp522
I4
s(g2
g9
g16
g2
tp523
I1
s(g111
tp524
I1
s(g30
g2
g8
g109
tp525
I1
s(g175
g16
g3
g41
tp526
I2
s(g56
g9
g12
g109
tp527
I1
s(g95
tp528
I1
s(g28
g112
tp529
I2
s(g105
g93
g96
g99
tp530
I2
s(g8
g9
g16
g8
tp531
I1
s(g159
g95
tp532
I1
s(g246
g63
g20
tp533
I1
s(g158
g159
g95
tp534
I1
s(g56
g9
tp535
I1
s(g192
g12
tp536
I1
s(g41
g11
g8
g7
tp537
I2
s(g56
g88
tp538
I2
s(g2
g9
tp539
I1
s(g46
g48
g51
tp540
I1
s(g81
g68
g111
g28
tp541
I1
s(g36
g39
tp542
I1
s(g16
g16
g8
g30
tp543
I2
s(g91
g141
tp544
I2
s(g37
g24
tp545
I2
s(g37
g24
g25
tp546
I1
s(g120
g78
g81
g68
tp547
I2
s(g112
g155
tp548
I2
s(g196
g34
g36
tp549
I1
s(g156
g158
tp550
I1
s(g8
g30
g2
g8
tp551
I1
s(g8
g7
tp552
I2
s(g272
g12
tp553
I1
s(g68
g111
g28
tp554
I1
s(g9
g16
tp555
I2
sa(dp556
((Vor
p557
S'CC'
p558
tp559
(V0.11
p560
S'CD'
p561
tp562
(Vpercent
p563
g97
tp564
tp565
I1
s(g2
g9
g58
tp566
I1
s((V3
p567
g561
tp568
tp569
I1
s(g115
g567
V2
p570
tp571
I1
s(Vpoint
p572
V,
p573
g557
g560
tp574
I2
s((V&
p575
S'CC'
p576
tp577
(VPoor
p578
S'NNP'
p579
tp580
(V's
p581
S'POS'
p582
tp583
tp584
I1
s(g30
g8
g58
g2
tp585
I2
s((VIndex
p586
S'NNP'
p587
tp588
(V.IXIC
p589
g587
tp590
(Vinched
p591
S'VBD'
p592
tp593
tp594
I1
s(g580
g583
(V500
p595
S'CD'
p596
tp597
tp598
I1
s((VNasdaq
p599
S'NNP'
p600
tp601
tp602
I1
s(g41
g16
tp603
I1
s(g115
VS
p604
tp605
I1
s(g578
g581
tp606
I2
s(g58
g3
tp607
I1
s(g115
VI
p608
VX
p609
g608
tp610
I1
s(g581
g595
tp611
I2
s(V1,650
p612
tp613
I2
s(g2
g3
tp614
I6
s(g16
g3
g9
tp615
I1
s(V5
p616
V0
p617
g617
tp618
I2
s(g11
g9
g30
g8
tp619
I1
s(Vtechnology-laced
p620
tp621
I2
s(g599
VComposite
p622
g586
tp623
I2
s(g597
tp624
I1
s((VThe
p625
g194
tp626
(g620
g50
tp627
g601
(g622
g587
tp628
tp629
I1
s(V-
p630
g11
g9
g30
tp631
I1
s(g578
g581
g595
tp632
I2
s(Vinched
p633
Vup
p634
tp635
I2
s(VC
p636
g3
tp637
I1
s(g590
tp638
I1
s((Vdown
p639
g33
tp640
(V1
p641
S'CD'
p642
tp643
(g572
g97
tp644
(g573
S','
p645
tp646
tp647
I1
s(g87
g88
g8
tp648
I4
s(g109
g3
g272
tp649
I1
s(g88
g8
g109
tp650
I2
s(g560
g563
g573
tp651
I2
s(V7
p652
g617
tp653
I1
s(g641
g573
V6
p654
tp655
I1
s(g595
tp656
I2
s(g654
g616
tp657
I1
s(g9
Vq
p658
tp659
I1
s(g608
g58
g109
g8
tp660
I2
s(g622
g586
g589
g591
tp661
I2
s(g581
g595
VIndex
p662
V.SPX
p663
tp664
I2
s(g564
(g573
g645
tp665
(Vto
p666
g137
tp667
tp668
I2
s(g3
g272
tp669
I1
s(g573
g666
g612
g115
tp670
I2
s(g8
g16
tp671
I2
s(g58
g109
g8
Vx
p672
tp673
I2
s(g56
g109
tp674
I1
s((V0.32
p675
g561
tp676
tp677
I1
s(Vpoints
p678
g573
Vor
p679
tp680
I1
s(g11
g9
tp681
I1
s(g560
g563
tp682
I2
s(g666
tp683
I4
s(g3
g272
g58
tp684
I1
s(g679
g675
Vpercent
p685
g573
tp686
I2
s(VStandard
p687
g575
g578
tp688
I2
s(g563
g573
g666
g612
tp689
I2
s(g9
g56
tp690
I1
s((g687
g587
tp691
g577
g580
tp692
I1
s((g573
g645
tp693
(Vto
p694
g137
tp695
(V970
p696
g561
tp697
tp698
I1
s((g663
g97
tp699
(g633
g592
tp700
(g634
g33
tp701
g568
tp702
I1
s(g58
g30
g88
g8
tp703
I2
s(g567
Vpoint
p704
g573
g679
tp705
I1
s(g675
g685
g573
tp706
I2
s((g678
g43
tp707
(g573
g645
tp708
(g679
g558
tp709
tp710
I1
s(g695
g697
tp711
I1
s(g109
g9
g16
tp712
I1
s(g572
g573
g557
tp713
I3
s(g608
g609
g608
tp714
I1
s(Vbroad
p715
g687
tp716
I2
s(g575
g578
g581
tp717
I2
s(g58
g2
tp718
I4
s(VN
p719
g9
g56
g109
tp720
I1
s(g7
g175
g3
g56
tp721
I1
s(g641
g573
g654
g616
tp722
I1
s(g87
g88
tp723
I2
s(g563
tp724
I4
s(g634
g567
tp725
I2
s(g559
tp726
I2
s(g591
tp727
I4
s(g593
g640
tp728
I1
s(g58
g109
g8
tp729
I2
s(g115
g641
tp730
I1
s(g12
g58
tp731
I4
s(g608
g609
tp732
I1
s(g8
g58
g2
tp733
I2
s(g643
tp734
I1
s(g641
g572
g573
tp735
I2
s(g59
g192
g630
g11
tp736
I1
s(g572
g573
tp737
I3
s(g8
g30
g88
g58
tp738
I1
s(g58
g3
g11
tp739
I1
s(g573
g557
g560
tp740
I2
s(g567
g678
g573
g679
tp741
I1
s(g575
tp742
I5
s(g573
g557
g560
g563
tp743
I2
s(g691
tp744
I1
s(g608
g58
tp745
I2
s(g675
g685
tp746
I2
s(g175
g3
g12
g58
tp747
I2
s((VThe
p748
g194
tp749
(g715
S'JJ'
p750
tp751
tp752
I1
s(g567
g678
g573
tp753
I1
s(g622
tp754
I2
s(g643
g644
g646
g559
tp755
I1
s(g115
g608
tp756
I1
s(g115
g608
g609
tp757
I1
s(g640
tp758
I1
s(g192
g630
tp759
I1
s(VP
p760
g3
g3
tp761
I1
s(g633
g634
g567
g678
tp762
I1
s(g3
g59
g192
tp763
I1
s(g573
g694
g696
g115
tp764
I2
s(g667
(g612
g561
tp765
tp766
I1
s(g573
g679
g675
g685
tp767
I2
s(g11
g9
g30
tp768
I1
s(g30
g88
g58
g3
tp769
I1
s(g3
g11
g3
g59
tp770
I1
s(g557
g560
tp771
I2
s(g590
g593
tp772
I1
s(g567
g704
tp773
I1
s(g663
g633
tp774
I2
s(g9
g109
tp775
I1
s(g700
g701
g568
tp776
I1
s(g617
g115
g567
g570
tp777
I1
s(g617
g115
g641
tp778
I1
s(g8
g30
tp779
I1
s(g616
g617
tp780
I2
s(g601
g628
g588
g590
tp781
I1
s(g109
g3
tp782
I1
s(g604
g760
g609
tp783
I1
s(g3
g7
g175
g3
tp784
I1
s(g581
tp785
I2
s(g697
tp786
I1
s(g88
g58
g3
tp787
I1
s(g662
g663
tp788
I2
s(g572
tp789
I3
s(g573
tp790
I20
s(g3
g59
g192
g630
tp791
I1
s(g748
g715
g687
g575
tp792
I2
s(V'
p793
g56
tp794
I3
s(g608
g609
g608
g636
tp795
I1
s(g9
g56
g109
tp796
I1
s(g622
g586
tp797
I2
s(g679
g675
g685
tp798
I2
s(g580
g583
tp799
I1
s(g699
tp800
I1
s(g16
g3
g9
g109
tp801
I1
s(g30
g8
g109
tp802
I1
s(g590
g593
g640
g643
tp803
I1
s(g56
g109
g9
tp804
I1
s(g2
g56
tp805
I1
s(g9
g30
g8
tp806
I1
s(g568
g707
tp807
I1
s(g588
tp808
I2
s(g595
g662
tp809
I2
s(g58
g109
g9
tp810
I1
s(g708
g709
g676
(g685
g97
tp811
tp812
I1
s(g696
g115
tp813
I2
s(g2
g9
g58
g109
tp814
I1
s(g109
g8
g672
tp815
I2
s(g573
g694
g696
tp816
I2
s(g589
g591
g639
tp817
I2
s(g575
g578
g581
g595
tp818
I2
s(g30
g88
g8
g109
tp819
I2
s(g568
g707
g708
tp820
I1
s(g8
g16
g30
g8
tp821
I2
s(g560
tp822
I2
s(g9
g16
g109
tp823
I1
s(g109
g8
tp824
I2
s(g589
tp825
I2
s(g665
g667
g765
tp826
I1
s(g604
g2
g9
tp827
I1
s(g563
g573
g666
tp828
I4
s(g627
g601
tp829
I1
s(g595
g662
g663
g633
tp830
I2
s(g626
g627
g601
tp831
I1
s(g663
g633
g634
g567
tp832
I2
s(g573
g666
tp833
I4
s(g627
g601
g628
tp834
I1
s(g567
g704
g573
tp835
I1
s((g662
g587
tp836
g699
g700
g701
tp837
I1
s(g665
g667
g765
(g115
g116
tp838
tp839
I1
s(g599
tp840
I2
s(g557
g560
g563
tp841
I2
s(g625
g620
g599
g622
tp842
I2
s(g175
g3
g56
g12
tp843
I1
s(g715
g687
g575
tp844
I2
s(g88
g58
g3
g11
tp845
I1
s(g8
g58
tp846
I2
s(g12
g58
g2
g56
tp847
I1
s(g586
g589
g591
tp848
I2
s(g715
tp849
I2
s(g622
g586
g589
tp850
I2
s(g646
g559
tp851
I2
s(g666
g612
g115
tp852
I2
s(g620
g599
g622
g586
tp853
I2
s(g589
g591
tp854
I2
s(g617
g617
tp855
I1
s(g562
g564
g665
g667
tp856
I1
s(g12
g2
g8
tp857
I1
s(g8
g30
g88
tp858
I1
s(g583
g597
tp859
I1
s(g557
tp860
I4
s(g751
tp861
I1
s(g12
g2
tp862
I1
s(g625
g620
g599
tp863
I2
s(g16
g30
tp864
I2
s(g679
g675
tp865
I2
s(g591
g639
tp866
I2
s(g646
g559
g562
g564
tp867
I1
s(g3
g11
g3
tp868
I1
s(g3
g56
g12
g2
tp869
I1
s(g644
g646
g559
g562
tp870
I1
s(g640
g643
g644
tp871
I1
s(g633
g634
g567
g704
tp872
I1
s(g586
g589
g591
g639
tp873
I2
s(g630
g11
g9
tp874
I1
s(g583
tp875
I1
s(g573
g557
tp876
I4
s(g109
g9
tp877
I2
s(g667
g765
g838
tp878
I1
s(g609
g608
g636
tp879
I1
s(g12
g58
g30
g88
tp880
I2
s(g699
g700
tp881
I1
s(g59
g192
tp882
I1
s(g578
tp883
I2
s(g654
g616
g617
tp884
I1
s(g617
g115
g567
tp885
I1
s(g667
tp886
I2
s(g625
g620
tp887
I2
s(g765
tp888
I1
s(g597
g836
g699
g700
tp889
I1
s(g8
g672
tp890
I2
s(g811
g693
g695
g697
tp891
I1
s(V9
p892
g652
g617
tp893
I2
s(g701
g568
g707
tp894
I1
s(g560
g563
g573
g666
tp895
I2
s(g701
tp896
I1
s(g586
tp897
I4
s(g9
g58
g109
g9
tp898
I1
s(g30
g8
g58
tp899
I2
s(g749
g751
g691
tp900
I1
s(g620
g599
tp901
I2
s(g56
g12
g2
g8
tp902
I1
s(g590
g593
g640
tp903
I1
s(g691
g577
g580
g583
tp904
I1
s(g597
g836
g699
tp905
I1
s(g634
g567
g704
g573
tp906
I1
s(g564
tp907
I2
s(g595
g662
g663
tp908
I2
s(g30
g8
tp909
I3
s(g115
g641
g641
tp910
I1
s(g109
g3
g272
g58
tp911
I1
s(g12
g58
g30
tp912
I2
s(g115
g604
g760
g609
tp913
I1
s(g838
tp914
I2
s(g58
g2
g56
tp915
I1
s(g700
g701
g568
g707
tp916
I1
s(g9
g30
g8
g109
tp917
I1
s(g644
tp918
I1
s(g691
g577
tp919
I1
s(g641
tp920
I5
s(g640
g643
tp921
I1
s(g3
g9
tp922
I1
s(g3
g12
g58
g2
tp923
I2
s(g678
tp924
I1
s(g697
(g115
g116
tp925
tp926
I1
s(g625
tp927
I4
s(g701
g568
tp928
I1
s(g56
g109
g9
g658
tp929
I1
s(g9
g58
tp930
I1
s(g577
tp931
I1
s(g192
g630
g11
tp932
I1
s(g695
g697
g925
tp933
I1
s(g707
tp934
I1
s(g591
g639
g641
g572
tp935
I2
s(g646
g559
g562
tp936
I1
s(g678
g573
g679
g675
tp937
I1
s(g685
g573
g694
g696
tp938
I2
s(g588
g590
tp939
I1
s(g8
g16
g30
tp940
I2
s(g676
g811
tp941
I1
s(g9
g56
g109
g9
tp942
I1
s(g639
g641
g572
tp943
I2
s(g751
g691
g577
tp944
I1
s(g694
g696
tp945
I2
s(g8
g109
tp946
I3
s(g58
g30
g88
tp947
I2
s(g719
g9
tp948
I1
s(g2
g8
g30
tp949
I1
s(g564
g665
g667
g765
tp950
I1
s(g633
g634
g567
tp951
I2
s(g687
g575
tp952
I2
s(g192
g630
g11
g9
tp953
I1
s(g678
g573
tp954
I1
s(g634
g567
g678
tp955
I1
s(g184
g175
tp956
I3
s(g628
tp957
I1
s(g41
g16
g3
g9
tp958
I1
s(g628
g588
g590
g593
tp959
I1
s(g628
g588
tp960
I1
s(g577
g580
g583
g597
tp961
I1
s(g563
g573
tp962
I4
s(g760
g3
tp963
I1
s(g9
g16
tp964
I1
s(g562
g564
g665
tp965
I1
s(g577
g580
tp966
I1
s(g693
g695
g697
g925
tp967
I1
s(g634
g567
g704
tp968
I1
s(g601
g628
tp969
I1
s(g715
g687
g575
g578
tp970
I2
s(g3
g9
g109
tp971
I1
s(g626
g627
tp972
I1
s(g626
tp973
I2
s(g699
g700
g701
tp974
I1
s(g597
g836
tp975
I1
s(g9
g30
tp976
I1
s(g115
tp977
I10
s(g2
g8
g30
g88
tp978
I1
s(g760
g609
tp979
I1
s(g748
g715
g687
tp980
I2
s(g604
g2
g9
g58
tp981
I1
s(g3
g11
tp982
I1
s(g7
g175
g3
tp983
I1
s(g675
tp984
I2
s(g586
g589
tp985
I2
s(g593
g640
g643
g644
tp986
I1
s(g696
tp987
I2
s(g56
g12
tp988
I1
s(g562
g564
tp989
I1
s(g608
g636
tp990
I1
s(g676
g811
g693
tp991
I1
s(g617
g115
tp992
I2
s(g617
g115
g641
g641
tp993
I1
s(g644
g646
tp994
I1
s(g573
g654
tp995
I1
s(g627
tp996
I1
s(g30
g88
tp997
I3
s(g573
g654
g616
tp998
I1
s(g11
g3
tp999
I1
s(g707
g708
g709
g676
tp1000
I1
s(g175
g8
g16
g30
tp1001
I2
s(g748
g715
tp1002
I2
s(g16
g109
tp1003
I1
s(g30
g88
g8
tp1004
I2
s(g3
g56
g12
tp1005
I1
s(g41
g16
g3
tp1006
I1
s(g115
g567
tp1007
I1
s(g9
g58
g109
tp1008
I1
s(g573
g666
g612
tp1009
I2
s(g58
g109
tp1010
I3
s(g704
g573
g679
g675
tp1011
I1
s(g3
g16
tp1012
I7
s(g641
g572
g573
g557
tp1013
I2
s(g836
g699
g700
tp1014
I1
s(g687
g575
g578
g581
tp1015
I2
s(g694
g696
g115
tp1016
I2
s(g665
g667
tp1017
I2
s(g568
g707
g708
g709
tp1018
I1
s(g58
g3
g11
g3
tp1019
I1
s(g719
g9
g56
tp1020
I1
s(g175
g8
tp1021
I2
s(g701
g568
g707
g708
tp1022
I1
s(g575
g578
tp1023
I2
s(g88
g58
tp1024
I1
s(g109
g9
g658
tp1025
I1
s(g3
g12
g58
tp1026
I2
s(g16
g3
tp1027
I1
s(g751
g691
tp1028
I1
s(g639
tp1029
I2
s(g557
g560
g563
g573
tp1030
I2
s(g589
g591
g639
g641
tp1031
I2
s(g634
g567
g678
g573
tp1032
I1
s(g643
g644
tp1033
I1
s(g3
g12
tp1034
I2
s(g641
g572
tp1035
I2
s(g760
g3
g3
g16
tp1036
I1
s(g641
g641
tp1037
I1
s(g666
g612
tp1038
I2
s(g3
g7
g175
tp1039
I1
s(g562
tp1040
I1
s(g675
g685
g573
g694
tp1041
I2
s(g709
g676
g811
tp1042
I1
s(g12
g58
g2
tp1043
I2
s(g599
g622
g586
g589
tp1044
I2
s(g2
g8
tp1045
I2
s(g567
g570
tp1046
I1
s(g591
g639
g641
tp1047
I2
s(g3
g59
tp1048
I1
s(g608
g58
g109
tp1049
I2
s(g109
g9
g16
g109
tp1050
I1
s(g639
g641
tp1051
I2
s(g636
g3
g7
g175
tp1052
I1
s(g175
g3
g12
tp1053
I2
s(g630
g11
tp1054
I1
s(g3
g3
g16
tp1055
I1
s(g16
g30
g8
tp1056
I2
s(g593
g640
g643
tp1057
I1
s(g175
g8
g16
tp1058
I2
s(g3
g3
tp1059
I1
s(g593
tp1060
I2
s(g634
tp1061
I2
s(g11
g3
g59
g192
tp1062
I1
s(g751
g691
g577
g580
tp1063
I1
s(g88
g8
tp1064
I4
s(g612
g115
tp1065
I2
s(g564
g665
tp1066
I2
s(g58
g109
g9
g16
tp1067
I1
s(g643
g644
g646
tp1068
I1
s(g662
g663
g633
g634
tp1069
I2
s(g578
g581
g595
g662
tp1070
I2
s(g599
g622
tp1071
I2
s(g609
g608
tp1072
I1
s(g580
g583
g597
g836
tp1073
I1
s(g583
g597
g836
tp1074
I1
s(g30
g88
g58
tp1075
I1
s(g765
g838
tp1076
I1
s(g58
g30
tp1077
I2
s(g559
g562
g564
g665
tp1078
I1
s(g11
g3
g59
tp1079
I1
s(g709
g676
g811
g693
tp1080
I1
s(g749
g751
g691
g577
tp1081
I1
s(g836
g699
tp1082
I1
s(g662
g663
g633
tp1083
I2
s(g59
g192
g630
tp1084
I1
s(g707
g708
tp1085
I1
s(g646
tp1086
I4
s(g7
g175
tp1087
I1
s(g588
g590
g593
g640
tp1088
I1
s(g604
g2
tp1089
I1
s(g559
g562
tp1090
I1
s(g641
g573
tp1091
I1
s(g687
tp1092
I2
s(g3
g7
tp1093
I1
s(g56
g12
g2
tp1094
I1
s(g601
g628
g588
tp1095
I1
s(g573
g654
g616
g617
tp1096
I1
s(g2
g9
tp1097
I1
s(g636
g3
g7
tp1098
I1
s(g272
g58
tp1099
I1
s(g567
g678
tp1100
I1
s(g676
g811
g693
g695
tp1101
I1
s(g175
g3
g56
tp1102
I1
s(g639
g641
g572
g573
tp1103
I2
s(g604
g760
tp1104
I1
s(g16
g30
g8
g58
tp1105
I2
s(g567
tp1106
I5
s(g663
tp1107
I2
s(g708
g709
g676
tp1108
I1
s(g581
g595
g662
tp1109
I2
s(g628
g588
g590
tp1110
I1
s(g700
g701
tp1111
I1
s(g580
tp1112
I1
s(g583
g597
g836
g699
tp1113
I1
s(g3
g56
tp1114
I1
s(g644
g646
g559
tp1115
I1
s(g620
g599
g622
tp1116
I2
s(g709
g676
tp1117
I1
s(g115
g604
g760
tp1118
I1
s(g573
g679
g675
tp1119
I2
s(g663
g633
g634
tp1120
I2
s(g892
g652
tp1121
I1
s(g175
g3
tp1122
I3
s(g627
g601
g628
g588
tp1123
I1
sa(dp1124
(Vthe
p1125
tp1126
I6
s((V``
p1127
S'``'
p1128
tp1129
(VIt
p1130
S'PRP'
p1131
tp1132
tp1133
I2
s((Vsaid
p1134
g79
tp1135
(Vpublisher
p1136
g97
tp1137
(VArthur
p1138
g587
tp1139
tp1140
I1
s((Vwhose
p1141
S'WP$'
p1142
tp1143
tp1144
I1
s(g11
g8
tp1145
I1
s(g604
g184
g11
Vz
p1146
tp1147
I2
s((g1125
g47
tp1148
tp1149
I3
s((Vhuge
p1150
S'JJ'
p1151
tp1152
(Vblack
p1153
S'JJ'
p1154
tp1155
(Veye
p1156
S'NN'
p1157
tp1158
(g573
g645
tp1159
tp1160
I2
s(g1138
VOchs
p1161
tp1162
I2
s(g9
g30
g13
tp1163
I2
s(g88
g56
tp1164
I1
s(Vpaper
p1165
Vsince
p1166
V1896
p1167
g115
tp1168
I2
s(g1139
(g1161
g587
tp1169
(VSulzberger
p1170
g587
tp1171
(VJr.
p1172
S'NNP'
p1173
tp1174
tp1175
I1
s(Vsaid
p1176
Vof
p1177
Vthe
p1178
tp1179
I2
s(g88
g9
tp1180
I1
s(g1155
g1158
g1159
(V''
p1181
S"''"
p1182
tp1183
tp1184
I2
s(g30
g3
g58
g2
tp1185
I1
s(VO
p1186
g30
g88
tp1187
I1
s((Vfamily
p1188
S'NN'
p1189
tp1190
(Vhas
p1191
S'VBZ'
p1192
tp1193
(Vcontrolled
p1194
g135
tp1195
g1148
tp1196
I1
s(g9
g11
tp1197
I1
s((Vpublisher
p1198
g97
tp1199
(g573
g645
tp1200
(g1176
g79
tp1201
tp1202
I1
s(Vha
p1203
g1194
g1125
g1165
tp1204
I1
s(g7
g12
g11
tp1205
I1
s(g1148
(g1165
S'NN'
p1206
tp1207
(g1166
S'IN'
p1208
tp1209
(g1167
g561
tp1210
tp1211
I1
s(g58
g109
g9
tp1212
I1
s(g1195
g1148
g1207
tp1213
I1
s((g573
g645
tp1214
(V''
p1215
g1182
tp1216
(VArthur
p1217
g587
tp1218
(VSulzberger
p1219
g587
tp1220
tp1221
I1
s(Vthe
p1222
Vnewspaper
p1223
tp1224
I2
s(g1141
tp1225
I2
s(g793
g793
tp1226
I6
s(g641
V8
p1227
g892
tp1228
I1
s(g16
g3
g11
g11
tp1229
I1
s(g1217
g1219
g573
g1222
tp1230
I2
s(g164
g9
g7
tp1231
I1
s(g41
g11
g12
g56
tp1232
I2
s(g16
g59
g8
g16
tp1233
I2
s(g9
g12
g109
tp1234
I2
s(g184
g41
g11
g12
tp1235
I2
s((g1222
g47
tp1236
(g1223
S'NN'
p1237
tp1238
(V's
p1239
g582
tp1240
g1199
tp1241
I1
s((g1177
S'IN'
p1242
tp1243
(g1178
g47
tp1244
(Vscandal
p1245
S'NN'
p1246
tp1247
tp1248
I1
s(g1150
g1153
tp1249
I4
s(g109
g9
g11
tp1250
I1
s(g8
g16
g59
tp1251
I2
s(g9
g58
tp1252
I1
s(g1227
g892
g654
tp1253
I1
s(g12
g56
g88
g8
tp1254
I2
s(g1207
g1209
g1210
(g115
g116
tp1255
tp1256
I1
s(g1223
g1239
g1198
tp1257
I2
s((V's
p1258
g72
tp1259
(g9
S'DT'
p1260
tp1261
g1152
tp1262
I2
s(g16
g2
g88
g184
tp1263
I2
s(g3
g11
g11
tp1264
I1
s(g9
g7
tp1265
I1
s(g16
g2
tp1266
I2
s(g1166
g1167
g115
tp1267
I2
s(g11
g9
tp1268
I2
s(g7
g12
tp1269
I1
s(g1177
g1178
tp1270
I2
s(g56
g30
g9
g58
tp1271
I1
s(g1195
g1148
tp1272
I1
s(g1161
g1170
g1172
g573
tp1273
I2
s(g12
g11
tp1274
I1
s(g58
g109
g9
g11
tp1275
I1
s((g573
g645
tp1276
g1143
g1190
tp1277
I1
s(g1216
g1218
g1220
tp1278
I1
s(g1181
g1134
tp1279
I2
s(g9
g56
tp1280
I1
s((g573
g645
tp1281
g1236
g1238
g1240
tp1282
I1
s(g1134
g1136
g1138
tp1283
I2
s(g30
g9
g58
tp1284
I1
s(g1200
g1201
tp1285
I1
s(g41
g8
g16
tp1286
I2
s(g88
g8
tp1287
I5
s(g1245
g115
tp1288
I2
s(g1127
g1130
g1258
g9
tp1289
I4
s((Veye
p1290
g1157
tp1291
g1214
g1216
g1218
tp1292
I1
s(g2
g88
g8
tp1293
I6
s(g2
g16
g3
g11
tp1294
I1
s(g1150
tp1295
I4
s(g573
g1176
tp1296
I2
s(g175
g9
tp1297
I2
s(g1132
g1259
tp1298
I2
s(g58
g2
tp1299
I1
s(g1238
g1240
g1199
g1200
tp1300
I1
s(g1172
tp1301
I2
s(g58
g30
g8
tp1302
I1
s(g1181
tp1303
I4
s(g1191
g1194
tp1304
I1
s(g1259
g1261
tp1305
I2
s(g9
g7
g12
tp1306
I1
s(g12
g58
tp1307
I1
s(g41
g11
g9
tp1308
I2
s(g573
g1141
g1188
g1191
tp1309
I1
s(g1129
g1132
g1259
g1261
tp1310
I2
s(g1190
g1193
g1195
tp1311
I1
s(g58
g2
g16
tp1312
I1
s(g1161
g1170
g1172
tp1313
I2
s(g1281
g1236
tp1314
I1
s(g1201
g1243
g1244
g1247
tp1315
I1
s(g1141
g1188
g1203
g1194
tp1316
I1
s(g1176
g1177
tp1317
I2
s(g56
g9
g12
tp1318
I2
s(g184
g16
tp1319
I2
s(g1236
g1238
g1240
tp1320
I1
s(g8
g16
g59
g8
tp1321
I2
s(g1139
tp1322
I2
s(g1188
g1203
g1194
tp1323
I1
s(g1219
g573
tp1324
I2
s(g573
g1141
g1188
g1203
tp1325
I1
s(g1200
g1201
g1243
tp1326
I1
s(g1183
g1135
g1137
g1139
tp1327
I1
s(g1290
g573
g1215
g1217
tp1328
I2
s(g1177
tp1329
I2
s(g1137
g1139
g1169
g1171
tp1330
I1
s(g1150
g1153
g1156
tp1331
I4
s(g58
g8
tp1332
I1
s(g58
g8
g272
tp1333
I1
s(g1215
g1217
tp1334
I2
s(g1181
g1134
g1136
tp1335
I2
s(g175
g184
g41
g11
tp1336
I2
s(g1138
g1161
g1170
tp1337
I2
s(g1136
tp1338
I4
s(g1127
g1130
g1258
tp1339
I4
s(g3
g56
g8
tp1340
I1
s(g2
g88
g184
tp1341
I2
s(g1191
g1194
g1125
g1165
tp1342
I1
s(g1135
g1137
tp1343
I1
s(g1130
g1258
g9
tp1344
I4
s(g1177
g1178
g1245
tp1345
I2
s(g1130
g1258
g9
g1150
tp1346
I4
s(VA
p1347
g16
g2
g88
tp1348
I2
s(g1159
g1183
g1135
g1137
tp1349
I1
s(g9
g175
g8
g16
tp1350
I2
s(g1127
tp1351
I4
s(g1132
tp1352
I2
s(g1193
g1195
g1148
g1207
tp1353
I1
s(g16
g59
tp1354
I2
s(g1172
g573
g1141
g1188
tp1355
I2
s(g1258
tp1356
I6
s(g1141
g1188
g1191
g1194
tp1357
I1
s(g2
g88
g184
g16
tp1358
I2
s(g12
g11
g192
tp1359
I1
s(g1220
g1281
g1236
g1238
tp1360
I1
s(g1166
tp1361
I2
s(g573
tp1362
I25
s(g1165
g1166
tp1363
I2
s(g1236
g1238
tp1364
I1
s(g184
g11
tp1365
I2
s(g1210
tp1366
I1
s(g1159
g1183
g1135
tp1367
I1
s(g1215
g1217
g1219
g573
tp1368
I2
s(g175
g184
tp1369
I2
s(g16
g115
tp1370
I1
s(g30
g88
tp1371
I1
s(g88
g184
g16
tp1372
I2
s(g16
g3
g11
tp1373
I1
s(g1199
g1200
tp1374
I1
s(g1171
g1174
g1276
tp1375
I1
s(g1219
g573
g1222
g1223
tp1376
I2
s(g1245
tp1377
I2
s(g1223
g1239
g1198
g573
tp1378
I2
s(g1216
g1218
tp1379
I1
s(g1198
g573
g1176
g1177
tp1380
I2
s(g9
g175
g8
tp1381
I2
s(g573
g1176
g1177
g1178
tp1382
I2
s(g184
g11
g1146
g41
tp1383
I2
s(g1276
g1143
g1190
g1193
tp1384
I1
s(g184
g41
tp1385
I2
s(g641
g1227
tp1386
I1
s(g1210
g1255
tp1387
I1
s(g1167
g115
tp1388
I2
s(g1136
g1138
g1161
tp1389
I2
s(g1261
g1152
tp1390
I2
s(g1240
g1199
g1200
tp1391
I1
s(g1156
g573
g1181
g1134
tp1392
I2
s(g573
g1222
g1223
g1239
tp1393
I2
s(g56
g30
tp1394
I1
s(g1218
g1220
g1281
g1236
tp1395
I1
s(g88
g3
g56
g8
tp1396
I1
s(g1161
g1170
tp1397
I2
s(g1222
g1223
g1239
g1198
tp1398
I2
s(g1190
tp1399
I1
s(g1127
g1130
tp1400
I4
s(g1209
g1210
g1255
tp1401
I1
s(g1134
g1136
g1138
g1161
tp1402
I2
s(g9
g12
tp1403
I2
s(g1240
g1199
g1200
g1201
tp1404
I1
s(g1136
g1138
g1161
g1170
tp1405
I2
s(g1181
g1134
g1136
g1138
tp1406
I2
s(g573
g1215
g1217
tp1407
I2
s(g1129
tp1408
I2
s(g56
g175
g9
g175
tp1409
I1
s(g58
g8
g272
g56
tp1410
I1
s(g184
g11
g1146
tp1411
I2
s(g3
g164
tp1412
I3
s(g1166
g1167
tp1413
I2
s(g1194
tp1414
I2
s(g9
g58
g109
g9
tp1415
I1
s(g1170
g1172
g573
g1141
tp1416
I2
s(g1201
g1243
g1244
tp1417
I1
s(g1188
g1203
tp1418
I1
s(g30
g9
g58
g109
tp1419
I1
s(g1255
tp1420
I2
s(g1137
tp1421
I2
s(g573
g1176
g1177
tp1422
I2
s(g9
tp1423
I10
s(g1177
g1178
g1245
g115
tp1424
I2
s(g11
g192
tp1425
I1
s(g641
g1227
g892
g654
tp1426
I1
s(g1239
g1198
tp1427
I2
s(g1139
g1169
tp1428
I1
s(g1161
tp1429
I2
s(g1200
g1201
g1243
g1244
tp1430
I1
s(g1158
tp1431
I2
s(g1141
g1188
g1191
tp1432
I1
s(g573
g1181
g1134
g1136
tp1433
I2
s(g1207
g1209
tp1434
I1
s(g1125
g1165
g1166
g1167
tp1435
I2
s(g1143
g1190
tp1436
I1
s(g12
g58
g30
g8
tp1437
I1
s(g1222
g1223
g1239
tp1438
I2
s(g1238
g1240
g1199
tp1439
I1
s(g1134
g1136
tp1440
I2
s(g164
g9
g7
g12
tp1441
I1
s(g1152
tp1442
I2
s(g56
g9
g12
g109
tp1443
I2
s(g1240
tp1444
I1
s(g109
g9
tp1445
I1
s(g8
g192
tp1446
I2
s(g1158
g1159
tp1447
I2
s(g1223
tp1448
I2
s(g1178
g1245
tp1449
I2
s(g1153
g1156
g573
tp1450
I4
s(g1183
g1135
g1137
tp1451
I1
s(g1183
tp1452
I2
s(g1156
tp1453
I4
s(g1136
g1138
tp1454
I2
s(g16
g2
g88
tp1455
I2
s(g1172
g573
g1141
tp1456
I2
s(g1195
tp1457
I1
s(g11
g8
g109
tp1458
I1
s(g1258
g9
g1150
g1153
tp1459
I4
s(g11
g11
tp1460
I1
s(g11
g1146
g41
tp1461
I2
s(g164
g9
tp1462
I1
s(g11
g9
g30
tp1463
I2
s(g1137
g1139
tp1464
I1
s(g8
g192
g8
tp1465
I4
s(g1148
g1207
g1209
tp1466
I1
s(g1159
g1183
tp1467
I2
s(g1239
g1198
g573
tp1468
I2
s(g1141
g1188
tp1469
I2
s(g1240
g1199
tp1470
I1
s(g1220
g1281
tp1471
I1
s(g1156
g573
g1181
tp1472
I4
s(g1135
g1137
g1139
g1169
tp1473
I1
s(g41
g8
tp1474
I2
s(g30
g8
tp1475
I1
s(g88
g184
g59
tp1476
I2
s(g184
g59
g8
tp1477
I2
s(g7
g12
g11
g192
tp1478
I1
s(g1198
g573
tp1479
I2
s(g272
g88
g3
tp1480
I1
s(g1134
tp1481
I4
s(g3
g58
g2
tp1482
I1
s(g1194
g1125
g1165
tp1483
I2
s(g1146
g41
g8
g16
tp1484
I2
s(g175
g9
g175
g8
tp1485
I2
s(g1188
g1191
g1194
g1125
tp1486
I1
s(g1244
g1247
(g115
g116
tp1487
tp1488
I1
s(g9
g1150
tp1489
I4
s(g1239
g1198
g573
g1176
tp1490
I2
s(g1153
g1156
g573
g1181
tp1491
I4
s(g1347
g16
g2
tp1492
I2
s(VJ
p1493
g16
g115
tp1494
I2
s(g1216
g1218
g1220
g1281
tp1495
I1
s(g1171
g1174
tp1496
I1
s(g9
g175
tp1497
I2
s(g1194
g1125
tp1498
I2
s(g272
g56
tp1499
I1
s(g11
g11
g8
tp1500
I1
s(g1169
g1171
tp1501
I1
s(g88
g184
g59
g8
tp1502
I2
s(V`
p1503
g1503
tp1504
I6
s(g1135
tp1505
I2
s(g1158
g1159
g1183
tp1506
I2
s(g56
g175
g9
tp1507
I1
s(g1218
g1220
tp1508
I1
s(g8
g272
g56
tp1509
I1
s(g8
g109
tp1510
I1
s(g1199
g1200
g1201
g1243
tp1511
I1
s(g272
g56
g175
tp1512
I1
s(g1174
g1276
g1143
g1190
tp1513
I1
s(g1170
g1172
g573
tp1514
I2
s(g2
g88
tp1515
I5
s(g1155
tp1516
I2
s(g41
g8
g16
g59
tp1517
I2
s(g3
g58
tp1518
I1
s(g30
g88
g56
tp1519
I1
s(g1247
tp1520
I1
s(g3
g58
g2
g16
tp1521
I1
s(g1125
g1165
g1166
tp1522
I2
s(g1146
g41
tp1523
I2
s(g604
g184
tp1524
I2
s(g1169
g1171
g1174
g1276
tp1525
I1
s(g1258
g9
g1150
tp1526
I4
s(g1143
g1190
g1193
g1195
tp1527
I1
s(g11
g12
g56
g88
tp1528
I2
s(g1165
g1166
g1167
tp1529
I2
s(g1148
g1207
tp1530
I1
s(g1155
g1158
g1159
tp1531
I2
s(g30
g9
tp1532
I1
s(g1243
g1244
g1247
g1487
tp1533
I1
s(g1139
g1169
g1171
tp1534
I1
s(g1243
g1244
tp1535
I1
s(g1188
g1203
g1194
g1125
tp1536
I1
s(g1153
g1156
tp1537
I4
s(g1217
g1219
tp1538
I2
s(g9
g30
tp1539
I2
s(g1188
g1191
g1194
tp1540
I1
s(g184
g59
tp1541
I2
s(g115
tp1542
I10
s(g1193
g1195
tp1543
I1
s(g88
g9
g56
tp1544
I2
s(g1174
g1276
g1143
tp1545
I1
s(g88
g184
tp1546
I4
s(g1347
g16
tp1547
I2
s(g1195
g1148
g1207
g1209
tp1548
I1
s(g573
g1222
tp1549
I2
s(g3
g11
tp1550
I1
s(g16
g59
g8
tp1551
I2
s(g1203
g1194
tp1552
I1
s(g1171
tp1553
I2
s(g1209
tp1554
I1
s(g1201
g1243
tp1555
I1
s(g56
g12
tp1556
I1
s(g58
g109
tp1557
I1
s(g1125
g1165
tp1558
I2
s(g58
g2
g16
g3
tp1559
I1
s(g1153
tp1560
I4
s(g1176
g1177
g1178
g1245
tp1561
I2
s(g1172
g573
tp1562
I2
s(g1183
g1135
tp1563
I1
s(g88
g8
g16
tp1564
I2
s(g1169
g1171
g1174
tp1565
I1
s(g1158
g1159
g1183
g1135
tp1566
I1
s(g1188
g1191
tp1567
I1
s(g1238
g1240
tp1568
I1
s(g41
g11
g9
g30
tp1569
I2
s(g1156
g573
tp1570
I4
s(g1261
tp1571
I2
s(g1188
tp1572
I2
s(g1138
g1161
g1170
g1172
tp1573
I2
s(g9
g58
g109
tp1574
I1
s(g1130
tp1575
I4
s(g1165
tp1576
I2
s(g1219
g573
g1222
tp1577
I2
s(g573
g1222
g1223
tp1578
I2
s(g9
g1150
g1153
g1156
tp1579
I4
s(g41
g11
tp1580
I4
s(g1150
g1153
g1156
g573
tp1581
I4
s(g56
g175
tp1582
I1
s(g272
g88
tp1583
I1
s(g1170
tp1584
I4
s(g1143
g1190
g1193
tp1585
I1
s(g1191
tp1586
I1
s(g30
g3
tp1587
I1
s(g175
g8
tp1588
I2
s(g1203
g1194
g1125
tp1589
I1
s(g1243
tp1590
I1
s(g1167
tp1591
I2
s(g1203
tp1592
I1
s(g1130
g1258
tp1593
I4
s(g41
g11
g12
tp1594
I2
s(g8
g272
g56
g175
tp1595
I1
s(g16
g3
tp1596
I1
s(g1223
g1239
tp1597
I2
s(g8
g272
tp1598
I1
s(g1190
g1193
tp1599
I1
s(g1186
g30
tp1600
I1
s(g175
g8
g16
tp1601
I2
s(g2
g16
tp1602
I1
s(g1169
tp1603
I1
s(g1141
g1188
g1203
tp1604
I1
s(g88
g3
tp1605
I1
s(g573
g1215
g1217
g1219
tp1606
I2
s(g1193
g1195
g1148
tp1607
I1
s(g56
g12
g58
g30
tp1608
I1
s(g56
g8
tp1609
I1
s(g573
g1181
tp1610
I4
s(g192
g8
tp1611
I2
s(g1217
g1219
g573
tp1612
I2
s(g1193
tp1613
I1
s(g1207
tp1614
I1
s(g272
g88
g3
g56
tp1615
I1
s(g88
g3
g56
tp1616
I1
s(g1132
g1259
g1261
tp1617
I2
s(g1191
g1194
g1125
tp1618
I1
s(g1218
g1220
g1281
tp1619
I1
s(g11
g12
g56
tp1620
I2
s(g573
g1141
tp1621
I2
s(g9
g7
g12
g11
tp1622
I1
s(g9
g1150
g1153
tp1623
I4
s(g8
g16
tp1624
I8
s(g1259
g1261
g1152
g1155
tp1625
I2
s(g1244
g1247
tp1626
I1
s(g1186
g30
g88
g56
tp1627
I1
s(g2
g16
g3
tp1628
I1
s(g11
g1146
tp1629
I2
s(g1152
g1155
tp1630
I2
s(g11
g1146
g41
g8
tp1631
I2
s(g12
g56
tp1632
I2
s(g56
g12
g58
tp1633
I1
s(g1138
tp1634
I4
s(g56
g30
g9
tp1635
I1
s(g573
g1181
g1134
tp1636
I2
s(g573
g1141
g1188
tp1637
I2
s(g59
g8
tp1638
I4
s(g1170
g1172
tp1639
I2
s(g11
g11
g8
g109
tp1640
I1
s(g1281
g1236
g1238
tp1641
I1
s(g3
g11
g11
g8
tp1642
I1
s(g30
g13
tp1643
I2
s(g30
g3
g58
tp1644
I1
s(g793
g56
tp1645
I9
s(g175
g184
g41
tp1646
I2
s(g11
g12
tp1647
I2
s(g1214
g1216
g1218
tp1648
I1
s(g12
g109
tp1649
I2
s(g56
g88
g8
tp1650
I2
s(g1174
g1276
tp1651
I1
s(g1155
g1158
tp1652
I2
s(g58
g30
tp1653
I1
s(g1198
g573
g1176
tp1654
I2
s(g1207
g1209
g1210
tp1655
I1
s(g1194
g1125
g1165
g1166
tp1656
I2
s(g1227
g892
tp1657
I1
s(g12
g58
g30
tp1658
I1
s(g175
g9
g175
tp1659
I2
s(g1261
g1152
g1155
g1158
tp1660
I2
s(g1159
tp1661
I5
s(g1493
g16
tp1662
I1
s(g1259
tp1663
I2
s(g11
g9
g30
g13
tp1664
I2
s(g56
g9
tp1665
I2
s(g1261
g1152
g1155
tp1666
I2
s(g1171
g1174
g1276
g1143
tp1667
I1
s(g892
g654
tp1668
I1
s(g56
g88
g8
g16
tp1669
I2
s(g1174
tp1670
I1
s(g1132
g1259
g1261
g1152
tp1671
I2
s(g272
g56
g175
g9
tp1672
I1
s(g1137
g1139
g1169
tp1673
I1
s(g12
g56
g88
tp1674
I2
s(g184
g41
g11
tp1675
I2
s(g1276
g1143
tp1676
I1
s(g1146
g41
g8
tp1677
I2
s(g1129
g1132
g1259
tp1678
I2
s(g1220
g1281
g1236
tp1679
I1
s(g59
g8
g16
tp1680
I2
s(g1238
tp1681
I1
s(g3
g56
tp1682
I1
s(g608
g2
tp1683
I6
s(g1215
g1217
g1219
tp1684
I2
s(g604
g184
g11
tp1685
I2
s(g56
g88
tp1686
I2
s(g1247
g1487
tp1687
I1
s(g1178
g1245
g115
tp1688
I2
s(g1258
g9
tp1689
I4
s(g1209
g1210
tp1690
I1
s(g1152
g1155
g1158
tp1691
I2
sa(dp1692
(Vthe
p1693
tp1694
I8
s(Vis
p1695
g9
V``
p1696
tp1697
I2
s(g636
g88
g9
tp1698
I1
s(g608
tp1699
I5
s(g16
g8
tp1700
I3
s(g604
VE
p1701
tp1702
I1
s((VDonaldson
p1703
g587
tp1704
tp1705
I1
s(Vout
p1706
Vthere
p1707
Vthat
p1708
g1693
tp1709
I2
s((V's
p1710
g72
tp1711
(g9
g1260
tp1712
tp1713
I1
s(g109
g8
g58
g30
tp1714
I2
s(g88
g9
tp1715
I3
s((g9
g1260
tp1716
(g1696
g1128
tp1717
(Vbuilding
p1718
g97
tp1719
tp1720
I1
s(g9
Vbuilding
p1721
Vconfidence
p1722
tp1723
I2
s(g9
g11
g109
tp1724
I1
s(g12
g58
g59
tp1725
I2
s(g56
g3
tp1726
I1
s(g9
g11
tp1727
I1
s((Vthe
p1728
g47
tp1729
(Vbeat
p1730
g97
tp1731
tp1732
I2
s(g12
g109
g8
tp1733
I2
s(Vthink
p1734
Vthere
p1735
g1710
g9
tp1736
I2
s(g88
g9
g12
g16
tp1737
I1
s((g1706
g45
tp1738
(g1707
g33
tp1739
(g1708
g45
tp1740
(g1693
g47
tp1741
tp1742
I1
s(g793
g793
tp1743
I6
s(g1696
g1718
Vconfidence
p1744
tp1745
I2
s((g1744
g97
tp1746
g1738
tp1747
I1
s(g1728
g1730
g115
tp1748
I4
s(g1693
Vcop
p1749
Vis
p1750
tp1751
I4
s((g1722
g97
tp1752
(Vthat
p1753
g45
tp1754
tp1755
I1
s(g9
g12
g109
tp1756
I1
s(g1741
(g1749
g97
tp1757
(g1750
g102
tp1758
(Von
p1759
S'IN'
p1760
tp1761
tp1762
I2
s(g1750
g1759
g1728
g1730
tp1763
I4
s(g12
g16
g7
tp1764
I1
s(g1722
g1753
Vthe
p1765
Vcop
p1766
tp1767
I2
s(g9
g58
tp1768
I1
s(g1717
g1719
tp1769
I1
s(g1740
g1741
g1757
tp1770
I2
s(g41
g184
tp1771
I2
s(g41
g8
g9
tp1772
I2
s(g2
g88
g9
tp1773
I2
s(g1744
g1706
tp1774
I2
s(g1707
g1708
g1693
tp1775
I2
s(g1704
(Vsaid
p1776
g79
tp1777
tp1778
I1
s((g1695
g102
tp1779
g1716
g1717
tp1780
I1
s((V``
p1781
g1128
tp1782
(g608
S'PRP'
p1783
tp1784
(g1734
S'VBP'
p1785
tp1786
(g1735
S'EX'
p1787
tp1788
tp1789
I1
s(g1722
g1753
g1765
tp1790
I2
s(g12
g11
g11
g12
tp1791
I1
s(g1721
g1722
g1753
tp1792
I2
s(g1740
g1741
g1757
g1758
tp1793
I2
s(g184
g12
g11
tp1794
I2
s(g58
g13
tp1795
I1
s(g1719
g1746
g1738
tp1796
I1
s(g11
g11
g12
tp1797
I1
s(g1704
g1777
(Vthere
p1798
g1787
tp1799
g1779
tp1800
I1
s(g88
g8
tp1801
I7
s(g1761
tp1802
I2
s(g3
g184
tp1803
I1
s(g88
g12
g58
g13
tp1804
I1
s(g58
g9
g11
tp1805
I1
s(g1779
g1716
tp1806
I1
s(g109
g56
g3
tp1807
I1
s(g12
g11
g109
g12
tp1808
I2
s((VWilliam
p1809
S'NNP'
p1810
tp1811
g1704
tp1812
I1
s(g58
g30
g8
tp1813
I2
s(V''
p1814
tp1815
I4
s(g1729
g1731
(g115
g116
tp1816
tp1817
I2
s(g1759
g1728
g1730
g115
tp1818
I4
s(g12
g11
g11
tp1819
I1
s((VChairman
p1820
S'NNP'
p1821
tp1822
tp1823
I1
s(g12
g58
tp1824
I3
s(VSEC
p1825
g1820
tp1826
I2
s(g1825
g1820
g1809
tp1827
I2
s(g56
g9
g12
tp1828
I1
s(g1703
g1776
g1798
g1695
tp1829
I2
s(g164
g12
g109
tp1830
I2
s(g11
g12
g9
tp1831
I1
s(g1718
tp1832
I4
s(g11
g109
g56
g3
tp1833
I1
s(g1820
g1809
g1703
tp1834
I2
s(g1712
(g1721
g97
tp1835
g1752
tp1836
I1
s(g1786
g1788
g1711
tp1837
I1
s(g3
g58
g164
tp1838
I2
s(g12
g11
g109
tp1839
I2
s(g1730
g115
g1814
tp1840
I4
s(g16
g7
tp1841
I1
s(g1706
g1707
g1708
tp1842
I2
s(g1740
g1741
tp1843
I2
s(g11
g11
tp1844
I1
s(g636
g88
tp1845
I1
s(g1749
g1750
g1759
tp1846
I4
s(g1784
g1786
tp1847
I1
s(g12
g9
tp1848
I1
s(g109
g8
tp1849
I2
s(g9
g1721
g1722
g1753
tp1850
I2
s((g1825
S'NNP'
p1851
tp1852
tp1853
I1
s(VW
p1854
g12
tp1855
I1
s(g1788
g1711
g1712
g1835
tp1856
I1
s(g1749
g1750
tp1857
I4
s(g1799
g1779
g1716
g1717
tp1858
I1
s(g58
g164
g12
g109
tp1859
I2
s(g1730
g115
tp1860
I4
s(g604
g1701
g636
tp1861
I2
s(g1735
g1710
g9
tp1862
I2
s(g1696
tp1863
I4
s(g1811
g1704
g1777
tp1864
I1
s(g11
g109
g12
g58
tp1865
I2
s(g1710
tp1866
I2
s(g1731
tp1867
I2
s(g164
g12
tp1868
I2
s(g1741
g1757
tp1869
I2
s(g1761
g1729
g1731
g1816
tp1870
I2
s(g793
g56
tp1871
I3
s(g1695
tp1872
I6
s(g608
g1734
g1735
tp1873
I2
s(g9
g11
g109
g56
tp1874
I1
s(g1716
g1717
g1719
g1746
tp1875
I1
s(g1777
g1799
tp1876
I1
s(g1738
g1739
tp1877
I1
s(g8
g58
g30
g8
tp1878
I2
s(g1798
g1695
tp1879
I2
s(g7
g9
tp1880
I1
s(g1835
g1752
g1754
tp1881
I1
s(g58
g9
tp1882
I1
s(g1799
g1779
tp1883
I1
s(g30
g8
tp1884
I2
s(g8
g16
g8
tp1885
I3
s(g1746
g1738
g1739
g1740
tp1886
I1
s(g109
g12
g58
g59
tp1887
I2
s(g3
g58
g9
tp1888
I1
s(g1758
g1761
g1729
tp1889
I2
s(g3
g184
g2
tp1890
I2
s(g1776
g1798
g1695
g9
tp1891
I2
s(g41
g184
g12
g11
tp1892
I2
s(g1744
tp1893
I4
s(g1777
g1799
g1779
tp1894
I1
s(g1712
g1835
g1752
g1754
tp1895
I1
s(g12
g16
g7
g9
tp1896
I1
s(g12
g16
tp1897
I1
s(g1811
tp1898
I1
s(g184
g12
tp1899
I2
s(g1782
g1784
tp1900
I1
s(g1695
g9
tp1901
I2
s(g9
g12
tp1902
I2
s(g1735
g1710
g9
g1721
tp1903
I2
s(g1696
g1718
g1744
g1706
tp1904
I2
s(g1761
g1729
g1731
tp1905
I2
s(g1703
tp1906
I2
s(g1717
tp1907
I2
s(g8
g58
tp1908
I2
s((g1814
g1182
tp1909
tp1910
I2
s(VD
p1911
g3
g58
g9
tp1912
I1
s(g1782
g1784
g1786
tp1913
I1
s(g1750
g1759
g1728
tp1914
I4
s(g1744
g1706
g1707
g1708
tp1915
I2
s(g1757
tp1916
I2
s(g636
g88
g9
g12
tp1917
I1
s(g1707
g1708
tp1918
I2
s(g1738
tp1919
I1
s(g9
tp1920
I10
s(g9
g1696
g1718
tp1921
I2
s(g1734
tp1922
I2
s(g1776
g1798
tp1923
I2
s(g1719
tp1924
I2
s(g1739
g1740
g1741
g1757
tp1925
I1
s(g1822
g1811
tp1926
I1
s(g1703
g1776
tp1927
I2
s(g1757
g1758
g1761
tp1928
I2
s(g1693
g1749
tp1929
I4
s(g30
g3
g58
g164
tp1930
I2
s(g1717
g1719
g1746
tp1931
I1
s(g1719
g1746
g1738
g1739
tp1932
I1
s(g11
g109
tp1933
I3
s(g1711
g1712
g1835
g1752
tp1934
I1
s(g1759
g1728
g1730
tp1935
I4
s(g1825
g1820
g1809
g1703
tp1936
I2
s(g2
g88
g9
g2
tp1937
I2
s(g3
g58
g164
g12
tp1938
I2
s(g16
g7
g9
tp1939
I1
s(g1740
tp1940
I2
s(g12
g58
g13
tp1941
I1
s(g9
g7
tp1942
I1
s(g1816
g1909
tp1943
I2
s(g109
g12
g58
tp1944
I2
s(g1746
g1738
g1739
tp1945
I1
s(g1719
g1746
tp1946
I2
s(g1749
tp1947
I4
s(g184
g2
tp1948
I1
s(g1746
tp1949
I2
s(g11
g109
g56
tp1950
I1
s(g1784
g1786
g1788
g1711
tp1951
I1
s(g41
g184
g12
tp1952
I2
s(g12
g109
g8
g58
tp1953
I2
s(g41
g8
tp1954
I2
s(g88
g12
tp1955
I1
s(g1758
g1761
g1729
g1731
tp1956
I2
s(g3
g58
g9
g11
tp1957
I1
s(g1816
tp1958
I2
s(g1776
tp1959
I2
s(g1854
g12
g11
g11
tp1960
I1
s(g1696
g1718
tp1961
I2
s(g1820
g1809
g1703
g1776
tp1962
I2
s(g1707
g1708
g1693
g1749
tp1963
I2
s(g1788
g1711
tp1964
I1
s(g1728
g1730
g115
g1814
tp1965
I4
s(g8
g9
g2
tp1966
I2
s(g2
g88
g12
g58
tp1967
I1
s(g1708
g1693
g1749
tp1968
I4
s(g1784
tp1969
I1
s(g1708
tp1970
I4
s(g1718
g1744
g1706
tp1971
I2
s(g1503
g1503
tp1972
I6
s(g1777
tp1973
I1
s(g58
g164
tp1974
I2
s(g58
g164
g12
tp1975
I2
s(g56
g3
g58
tp1976
I1
s(g30
g3
g175
tp1977
I4
s(g2
g88
g12
tp1978
I1
s(g164
g12
g109
g8
tp1979
I2
s(g2
g88
g8
tp1980
I11
s(g8
g58
g30
tp1981
I2
s(g1809
g1703
tp1982
I2
s(g2
g88
tp1983
I10
s(g1799
g1779
g1716
tp1984
I1
s(g3
g58
tp1985
I10
s(g16
g7
g9
g58
tp1986
I1
s(g1781
g608
g1734
g1735
tp1987
I2
s(g1786
tp1988
I1
s(g9
g1696
tp1989
I2
s(g1739
g1740
tp1990
I1
s(g1735
g1710
tp1991
I2
s(g1799
tp1992
I2
s(g1712
g1835
tp1993
I1
s(g1758
g1761
tp1994
I2
s(g1749
g1750
g1759
g1728
tp1995
I4
s(g1852
g1822
g1811
g1704
tp1996
I1
s(g1729
g1731
g1816
g1909
tp1997
I2
s(g1820
g1809
tp1998
I2
s(g1809
g1703
g1776
g1798
tp1999
I2
s(g1779
tp2000
I3
s(g1809
g1703
g1776
tp2001
I2
s(g115
tp2002
I10
s(g1693
g1749
g1750
g1759
tp2003
I4
s(g1704
g1777
g1799
tp2004
I1
s(g1852
g1822
tp2005
I1
s(g1757
g1758
g1761
g1729
tp2006
I2
s(g88
g9
g12
tp2007
I1
s(g9
g12
g16
g7
tp2008
I1
s(g1752
g1754
(g1765
g47
tp2009
tp2010
I1
s(g109
g12
tp2011
I2
s(g8
g9
tp2012
I2
s(g1798
g1695
g9
tp2013
I2
s(g1731
g1816
tp2014
I2
s(g9
g2
tp2015
I4
s(g88
g8
g16
tp2016
I3
s(g1776
g1798
g1695
tp2017
I2
s(g88
g8
g16
g8
tp2018
I3
s(g109
g8
g58
tp2019
I2
s(g1716
tp2020
I2
s(g9
g12
g16
tp2021
I1
s(g1708
g1693
g1749
g1750
tp2022
I4
s(g11
g11
g12
g9
tp2023
I1
s(g1739
tp2024
I1
s(g1759
tp2025
I4
s(g1811
g1704
g1777
g1799
tp2026
I1
s(g1781
g608
tp2027
I2
s(g1788
g1711
g1712
tp2028
I1
s(g9
g1721
tp2029
I2
s(g1854
g12
g11
tp2030
I1
s(g12
g11
tp2031
I3
s(g30
g3
tp2032
I4
s(g115
g1814
tp2033
I4
s(g608
g1734
g1735
g1710
tp2034
I2
s(g1777
g1799
g1779
g1716
tp2035
I1
s(g58
g59
tp2036
I2
s(g1750
g1759
tp2037
I4
s(g1757
g1758
tp2038
I2
s(g1722
g1753
tp2039
I2
s(g3
g175
tp2040
I2
s(g1710
g9
g1721
g1722
tp2041
I2
s(g1798
g1695
g9
g1696
tp2042
I2
s(g1911
g3
tp2043
I1
s(g1739
g1740
g1741
tp2044
I1
s(g608
g1734
tp2045
I2
s(g1717
g1719
g1746
g1738
tp2046
I1
s(g1741
tp2047
I4
s(g11
g109
g12
tp2048
I2
s(g9
g1696
g1718
g1744
tp2049
I2
s(g8
g16
tp2050
I3
s(g1822
g1811
g1704
tp2051
I1
s(g1786
g1788
tp2052
I1
s(g1706
tp2053
I2
s(g88
g9
g2
tp2054
I2
s(g12
g56
tp2055
I9
s(g12
g9
g7
tp2056
I1
s(g1711
g1712
g1835
tp2057
I1
s(g1718
g1744
tp2058
I4
s(g1744
g1706
g1707
tp2059
I2
s(g1786
g1788
g1711
g1712
tp2060
I1
s(g1820
tp2061
I2
s(g41
g8
g9
g2
tp2062
I2
s(g109
g56
tp2063
I1
s(g1730
tp2064
I4
s(g11
g12
g9
g7
tp2065
I1
s(g1761
g1729
tp2066
I2
s(g1852
g1822
g1811
tp2067
I1
s(g30
g3
g58
tp2068
I2
s(g1734
g1735
g1710
tp2069
I2
s(g1731
g1816
g1909
tp2070
I2
s(g1835
g1752
g1754
g2009
tp2071
I1
s(g11
g12
tp2072
I1
s(g12
g109
tp2073
I3
s(g1706
g1707
tp2074
I2
s(g1911
g3
g58
tp2075
I1
s(g58
g30
tp2076
I2
s(g56
g9
g12
g109
tp2077
I1
s(g109
g56
g3
g58
tp2078
I1
s(g1738
g1739
g1740
tp2079
I1
s(g1822
g1811
g1704
g1777
tp2080
I1
s(g1798
tp2081
I6
s(g1716
g1717
tp2082
I1
s(g1711
tp2083
I1
s(g1721
g1722
g1753
g1765
tp2084
I2
s(g56
g9
tp2085
I1
s(g184
g12
g11
g109
tp2086
I2
s(g1708
g1693
tp2087
I4
s(g1718
g1744
g1706
g1707
tp2088
I2
s(g1759
g1728
tp2089
I4
s(g1734
g1735
tp2090
I2
s(g1728
g1730
tp2091
I4
s(g1703
g1776
g1798
tp2092
I2
s(g88
g12
g58
tp2093
I1
s(g1695
g9
g1696
g1718
tp2094
I2
s(g1752
g1754
g2009
(g1766
g97
tp2095
tp2096
I1
s(g1701
g636
tp2097
I1
s(g1784
g1786
g1788
tp2098
I1
s(g1825
tp2099
I2
s(g2
g88
g8
g16
tp2100
I3
s(g1710
g9
g1721
tp2101
I2
s(g1781
g608
g1734
tp2102
I2
s(g1741
g1757
g1758
tp2103
I2
s(g7
g9
g58
tp2104
I1
s(g58
g9
g11
g109
tp2105
I1
s(g1779
g1716
g1717
g1719
tp2106
I1
s(g1809
tp2107
I2
s(g1710
g9
tp2108
I2
sa(dp2109
(Vat
p2110
tp2111
I4
s(g58
g109
g12
tp2112
I2
s((Vat
p2113
S'IN'
p2114
tp2115
(V$
p2116
S'$'
p2117
tp2118
tp2119
I1
s(Veuro
p2120
Vin
p2121
VParis
p2122
Vafter
p2123
tp2124
I1
s(g16
g8
tp2125
I3
s(g2121
g2122
g2123
Vfalling
p2126
tp2127
I2
s((V15.80
p2128
g561
tp2129
tp2130
I1
s(Vpercent
p2131
g2110
g2128
tp2132
I2
s(g2118
tp2133
I1
s(Vdown
p2134
g2113
tp2135
I2
s((Vshares
p2136
S'NNS'
p2137
tp2138
(Vclosed
p2139
g592
tp2140
(V1.9
p2141
g561
tp2142
tp2143
I1
s((VMonday
p2144
S'NNP'
p2145
tp2146
(g115
g116
tp2147
tp2148
I1
s(g2136
g2139
g2141
g2131
tp2149
I1
s(g573
VVivendi
p2150
Vshare
p2151
Vwere
p2152
tp2153
I1
s(g2131
g2110
g2128
g2120
tp2154
I1
s((g573
g645
tp2155
(g2150
g587
tp2156
(Vshares
p2157
g2137
tp2158
tp2159
I1
s(g2152
V1.4
p2160
Vpercent
p2161
tp2162
I2
s(g2139
g2141
tp2163
I2
s(g2129
(Veuros
p2164
g43
tp2165
(g2121
S'IN'
p2166
tp2167
tp2168
I1
s(g8
g184
g16
g3
tp2169
I1
s(VV
p2170
g12
tp2171
I2
s(g2136
g2139
g2141
tp2172
I1
s(VYork
p2173
g573
g2150
g2151
tp2174
I1
s(g2161
g2134
tp2175
I2
s(g16
g12
g56
tp2176
I1
s(VNew
p2177
g2173
tp2178
I2
s(g58
g109
g9
tp2179
I1
s(g573
g2150
tp2180
I2
s(V3.6
p2181
Vpercent
p2182
tp2183
I2
s(g2139
g2141
g2131
g2110
tp2184
I2
s(g109
g3
g272
tp2185
I1
s(g2122
g2123
g2126
g2181
tp2186
I2
s(g616
g115
g1227
g617
tp2187
I1
s((g2110
g2114
tp2188
g2129
tp2189
I1
s(g2122
tp2190
I2
s((VIn
p2191
g45
tp2192
(g2177
S'NNP'
p2193
tp2194
(g2173
S'NNP'
p2195
tp2196
g2155
tp2197
I1
s(g2177
g2173
g573
g2150
tp2198
I2
s(g3
g272
tp2199
I1
s(g2120
g2121
g2122
tp2200
I1
s(g2110
g2128
g2164
g2121
tp2201
I1
s(g2115
g2118
(V18.29
p2202
g561
tp2203
tp2204
I1
s(g11
g12
g58
tp2205
I1
s((g2182
g97
tp2206
(Von
p2207
g1760
tp2208
tp2209
I1
s(g8
g58
g2
tp2210
I3
s(g2165
g2167
tp2211
I1
s(g2110
g2128
g2164
tp2212
I1
s(g9
g192
tp2213
I1
s(g2141
g2131
g2110
g2128
tp2214
I2
s(g3
g272
g58
tp2215
I1
s(g2128
g2164
tp2216
I1
s(VVivendi
p2217
g2136
g2139
g2141
tp2218
I1
s((g2160
S'CD'
p2219
tp2220
(g2161
g97
tp2221
(g2134
g33
tp2222
g2115
tp2223
I1
s(VM
p2224
g3
g58
g109
tp2225
I1
s(g2165
g2167
(g2122
S'NNP'
p2226
tp2227
tp2228
I1
s(g11
g11
g12
tp2229
I1
s(g56
g88
g9
g16
tp2230
I2
s(g2144
tp2231
I2
s(g2208
tp2232
I1
s(g115
g654
tp2233
I1
s(g8
g184
tp2234
I1
s(g16
g8
g56
tp2235
I2
s(g9
g164
g2
tp2236
I1
s(g2134
g2113
g2116
tp2237
I2
s(g2140
g2142
(g2131
g97
tp2238
g2188
tp2239
I1
s(g1227
g617
tp2240
I1
s(g2202
tp2241
I2
s(g58
g2
tp2242
I3
s(g2116
g2202
g115
tp2243
I2
s(g9
g16
g8
tp2244
I2
s(g641
g616
g115
g1227
tp2245
I1
s(g12
g58
tp2246
I4
s(g2141
g2131
tp2247
I2
s(g2161
g2134
g2113
g2116
tp2248
I2
s((g2181
g561
tp2249
g2206
tp2250
I1
s(g2160
g2161
g2134
tp2251
I2
s(g2217
Vshare
p2252
g2139
g2141
tp2253
I1
s(g88
g9
tp2254
I2
s(g2157
g2152
g2160
tp2255
I1
s(g2182
g2207
g2144
tp2256
I2
s(g2227
(g2123
S'IN'
p2257
tp2258
(g2126
S'VBG'
p2259
tp2260
tp2261
I1
s(g2120
g2121
tp2262
I1
s(g2128
tp2263
I2
s(g2151
g2152
tp2264
I1
s(g2181
g2182
g2207
g2144
tp2265
I2
s(g608
g58
tp2266
I3
s(g2206
g2208
g2146
tp2267
I1
s(g2131
g2110
tp2268
I2
s(g2160
tp2269
I2
s(g2150
g2157
g2152
tp2270
I1
s(g2139
tp2271
I2
s(g2152
g2160
g2161
g2134
tp2272
I2
s(g2252
g2139
g2141
tp2273
I1
s(g2258
tp2274
I1
s(g242
g8
g58
g109
tp2275
I2
s(g2123
tp2276
I2
s(g12
g58
g59
tp2277
I1
s(g8
g272
tp2278
I1
s(g2123
g2126
g2181
tp2279
I2
s(g2122
g2123
g2126
tp2280
I2
s(g11
g11
tp2281
I1
s(g56
g8
g109
tp2282
I1
s(g9
g11
tp2283
I1
s(g3
g56
g8
tp2284
I1
s(g2151
g2152
g2160
g2161
tp2285
I1
s(g2142
tp2286
I1
s(g9
g164
g2
g8
tp2287
I1
s(g2110
g2128
g2120
g2121
tp2288
I1
s(g242
g8
g58
tp2289
I2
s(g9
g11
g11
g12
tp2290
I1
s(g2196
tp2291
I1
s(g2173
g573
tp2292
I2
s(g2173
tp2293
I2
s(g2221
g2222
g2115
g2118
tp2294
I1
s(g184
g16
g3
g56
tp2295
I1
s(g2167
g2227
tp2296
I1
s(g115
g570
g892
tp2297
I1
s(g9
g16
g12
g56
tp2298
I1
s(g11
g11
g12
g58
tp2299
I1
s(g2188
g2129
g2165
g2167
tp2300
I1
s(g2158
(g2152
S'VBD'
p2301
tp2302
tp2303
I1
s(g2150
g2157
g2152
g2160
tp2304
I1
s(VY
p2305
g3
g16
g13
tp2306
I1
s(g2113
g2116
g2202
g115
tp2307
I2
s(g2182
g2207
tp2308
I2
s(g616
g115
g1227
tp2309
I1
s(g2249
g2206
g2208
tp2310
I1
s(g2302
tp2311
I1
s(g2188
g2129
g2165
tp2312
I1
s(g9
g164
tp2313
I1
s(g570
g892
tp2314
I1
s(g272
g8
tp2315
I1
s(g2128
g2120
g2121
g2122
tp2316
I1
s(g30
g8
g58
g2
tp2317
I3
s(g2164
g2121
tp2318
I1
s(g2138
g2140
tp2319
I1
s(g2136
g2139
tp2320
I1
s((g2217
g587
tp2321
tp2322
I2
s(g2224
g3
tp2323
I1
s(g2126
g2181
g2182
tp2324
I2
s(g2191
tp2325
I2
s(g11
g12
g58
g59
tp2326
I1
s(g2128
g2120
tp2327
I1
s(g8
g16
g8
tp2328
I1
s(g2260
g2249
tp2329
I1
s(g2161
g2134
g2113
tp2330
I2
s(g2220
g2221
tp2331
I1
s(g88
g9
g16
g8
tp2332
I2
s(g641
g1227
tp2333
I1
s(g573
g2150
g2151
tp2334
I1
s(g2167
g2227
g2258
g2260
tp2335
I1
s(g2302
g2220
g2221
tp2336
I1
s(g16
g3
g56
tp2337
I1
s(g2208
g2146
tp2338
I1
s(g641
g115
tp2339
I2
s(g2142
g2238
g2188
tp2340
I1
s(g2217
g2136
tp2341
I2
s(g573
g2150
g2157
tp2342
I1
s(g2305
g3
tp2343
I1
s(g2192
g2194
tp2344
I1
s(g2207
g2144
tp2345
I2
s(g164
g2
g8
tp2346
I1
s(g2194
tp2347
I1
s(g719
g8
g272
tp2348
I2
s(g115
g892
tp2349
I1
s(g2249
tp2350
I1
s(g2138
tp2351
I2
s(g2170
g12
g242
tp2352
I2
s(g2139
g2141
g2131
tp2353
I2
s(g8
g58
tp2354
I5
s(g2181
tp2355
I2
s(g2305
g3
g16
tp2356
I1
s(g2
g8
g16
tp2357
I1
s(g2157
g2152
tp2358
I1
s(g2126
tp2359
I2
s(g164
g2
tp2360
I1
s(g641
g115
g892
tp2361
I2
s(g2222
tp2362
I1
s(g2221
g2222
g2115
tp2363
I1
s(g30
g11
g3
g56
tp2364
I1
s(g16
g30
tp2365
I3
s(g2155
g2156
tp2366
I1
s(g2220
tp2367
I1
s(g2158
g2302
g2220
g2221
tp2368
I1
s(g2252
tp2369
I2
s(g115
g570
tp2370
I1
s(g2177
tp2371
I2
s(g2142
g2238
tp2372
I1
s(g3
g58
g109
tp2373
I1
s(g2260
tp2374
I1
s(g2131
g2110
g2128
g2164
tp2375
I1
s(g2152
tp2376
I2
s(g2173
g573
g2150
tp2377
I2
s(g2150
g2151
g2152
g2160
tp2378
I1
s(g2141
g2131
g2110
tp2379
I2
s(g2134
tp2380
I2
s(g109
g9
tp2381
I1
s(g641
g115
V4
p2382
tp2383
I2
s(g2144
g115
tp2384
I2
s(g2252
g2139
tp2385
I1
s(g12
g242
tp2386
I2
s(g115
g1227
g617
tp2387
I1
s(g2164
g2121
g2122
tp2388
I1
s(g2122
g2123
tp2389
I2
s(g2260
g2249
g2206
tp2390
I1
s(g11
g3
g56
tp2391
I1
s(g2224
g3
g58
tp2392
I1
s(g164
g9
g11
g11
tp2393
I1
s(g2140
g2142
g2238
tp2394
I1
s(g719
g8
tp2395
I1
s(g2141
tp2396
I2
s(g2164
g2121
g2122
g2123
tp2397
I1
s(g164
g9
tp2398
I1
s(g2207
tp2399
I2
s(g2156
g2158
g2302
g2220
tp2400
I1
s(g184
g16
g3
tp2401
I1
s(g30
g8
g58
tp2402
I3
s(g3
g16
tp2403
I1
s(g109
g3
tp2404
I1
s(g2194
g2196
tp2405
I1
s(g2206
g2208
g2146
g2147
tp2406
I1
s(g2156
g2158
g2302
tp2407
I1
s(g30
g8
tp2408
I3
s(g109
g3
g272
g58
tp2409
I1
s(g760
g9
g16
tp2410
I1
s(g9
g11
g11
tp2411
I1
s(g88
g9
g16
tp2412
I2
s(g2147
tp2413
I2
s(g8
g16
g30
g8
tp2414
I3
s(g2191
g2177
tp2415
I2
s(g3
g58
g109
g9
tp2416
I1
s(g2126
g2181
tp2417
I2
s(g3
g16
g13
tp2418
I1
s(g2196
g2155
tp2419
I1
s(g2192
g2194
g2196
tp2420
I1
s(g2238
g2188
tp2421
I1
s(g9
g16
g12
tp2422
I1
s(g9
g16
g8
g56
tp2423
I2
s(g12
g242
g8
g58
tp2424
I2
s(g56
g88
g9
tp2425
I2
s(g641
g1227
g115
g570
tp2426
I1
s(g30
g11
tp2427
I1
s(g2118
g2203
tp2428
I1
s(g272
g8
g16
tp2429
I1
s(g2217
g2252
g2139
tp2430
I1
s(g2165
tp2431
I1
s(g8
g16
g30
tp2432
I3
s(g2140
tp2433
I1
s(g2227
g2258
tp2434
I1
s(g2121
tp2435
I2
s(g2177
g2173
g573
tp2436
I2
s(g641
g1227
g115
tp2437
I1
s(g2217
tp2438
I4
s(g3
g58
tp2439
I4
s(g573
g2150
g2157
g2152
tp2440
I1
s(g2123
g2126
g2181
g2182
tp2441
I2
s(g2150
g2151
g2152
tp2442
I1
s(g2118
g2203
(g115
g116
tp2443
tp2444
I1
s(g9
g16
tp2445
I3
s(g2222
g2115
tp2446
I1
s(g2128
g2164
g2121
g2122
tp2447
I1
s(g2160
g2161
tp2448
I2
s(g2123
g2126
tp2449
I2
s(g30
g11
g3
tp2450
I1
s(g16
g13
tp2451
I1
s(g2238
g2188
g2129
g2165
tp2452
I1
s(g115
tp2453
I10
s(g2302
g2220
tp2454
I1
s(g2160
g2161
g2134
g2113
tp2455
I2
s(g58
g109
g9
g192
tp2456
I1
s(g2222
g2115
g2118
tp2457
I1
s(g2134
g2113
g2116
g2202
tp2458
I2
s(g2121
g2122
g2123
tp2459
I2
s(g2113
g2116
g2202
tp2460
I2
s(g2194
g2196
g2155
g2156
tp2461
I1
s(g2321
g2138
g2140
g2142
tp2462
I1
s(g2152
g2160
tp2463
I2
s(g2113
g2116
tp2464
I2
s(g2110
g2128
tp2465
I2
s(g2194
g2196
g2155
tp2466
I1
s(g58
g109
tp2467
I3
s(g2196
g2155
g2156
g2158
tp2468
I1
s(g8
g58
g109
g12
tp2469
I2
s(g109
g12
tp2470
I2
s(g2203
tp2471
I1
s(g9
g2
tp2472
I6
s(g2115
g2118
g2203
g2443
tp2473
I1
s(g11
g3
tp2474
I1
s(g2158
g2302
g2220
tp2475
I1
s(g175
g8
g16
g30
tp2476
I3
s(g2136
tp2477
I2
s(g16
g12
tp2478
I1
s(g115
g2382
tp2479
I1
s(g2157
g2152
g2160
g2161
tp2480
I1
s(g2151
g2152
g2160
tp2481
I1
s(g2167
g2227
g2258
tp2482
I1
s(g164
g9
g11
tp2483
I1
s(g2129
g2165
g2167
g2227
tp2484
I1
s(g175
g8
tp2485
I3
s(g2238
tp2486
I3
s(g2181
g2182
g2207
tp2487
I2
s(g2321
g2138
tp2488
I2
s(g2207
g2144
g115
tp2489
I2
s(g1227
g115
g570
tp2490
I1
s(g2217
g2136
g2139
tp2491
I1
s(g58
g59
tp2492
I1
s(g16
g3
tp2493
I1
s(g11
g3
g56
g8
tp2494
I1
s(g8
g109
tp2495
I1
s(g2155
g2156
g2158
g2302
tp2496
I1
s(g2203
g2443
tp2497
I1
s(g641
g616
g115
tp2498
I1
s(g2167
tp2499
I1
s(g8
g58
g109
tp2500
I2
s(g115
g1227
tp2501
I1
s(g2222
g2115
g2118
g2203
tp2502
I1
s(g2258
g2260
g2249
g2206
tp2503
I1
s(g2321
g2138
g2140
tp2504
I1
s(g8
g56
tp2505
I2
s(g272
g58
tp2506
I1
s(g56
g8
tp2507
I1
s(g2196
g2155
g2156
tp2508
I1
s(g2
g8
tp2509
I1
s(g2129
g2165
tp2510
I1
s(g2128
g2120
g2121
tp2511
I1
s(g573
tp2512
I5
s(g760
g9
g16
g12
tp2513
I1
s(g8
g16
tp2514
I5
s(g2258
g2260
tp2515
I1
s(g2110
g2128
g2120
tp2516
I1
s(g2252
g2139
g2141
g2131
tp2517
I1
s(g2191
g2177
g2173
g573
tp2518
I2
s(g16
g30
g8
tp2519
I3
s(g175
g8
g16
tp2520
I3
s(g12
g56
tp2521
I1
s(g2128
g2164
g2121
tp2522
I1
s(g2131
tp2523
I6
s(g2260
g2249
g2206
g2208
tp2524
I1
s(g2188
tp2525
I2
s(g242
g8
tp2526
I2
s(g109
g9
g192
tp2527
I1
s(g272
g8
g16
g8
tp2528
I1
s(g2121
g2122
tp2529
I2
s(g12
g242
g8
tp2530
I2
s(g11
g12
tp2531
I1
s(g2192
tp2532
I1
s(g2249
g2206
g2208
g2146
tp2533
I1
s(g2258
g2260
g2249
tp2534
I1
s(g2173
g573
g2150
g2157
tp2535
I1
s(g2140
g2142
tp2536
I1
s(g2120
tp2537
I1
s(g2221
g2222
tp2538
I1
s(g2155
tp2539
I1
s(g2217
g2252
tp2540
I2
s(g641
g616
tp2541
I1
s(g2116
g2202
tp2542
I2
s(g2142
g2238
g2188
g2129
tp2543
I1
s(g2170
g12
g242
g8
tp2544
I2
s(g2227
g2258
g2260
g2249
tp2545
I1
s(g8
g184
g16
tp2546
I1
s(g567
g115
tp2547
I1
s(g760
g9
tp2548
I1
s(g2146
tp2549
I1
s(g567
g115
g654
tp2550
I2
s(g2238
g2188
g2129
tp2551
I1
s(g16
g30
g8
g58
tp2552
I3
s(g2164
tp2553
I1
s(g2227
tp2554
I1
s(g184
g16
tp2555
I1
s(g2126
g2181
g2182
g2207
tp2556
I2
s(g2165
g2167
g2227
g2258
tp2557
I1
s(g2138
g2140
g2142
g2238
tp2558
I1
s(g3
g56
tp2559
I2
s(g2191
g2177
g2173
tp2560
I2
s(g2116
tp2561
I5
s(g2302
g2220
g2221
g2222
tp2562
I1
s(g2202
g115
tp2563
I2
s(g1227
g115
g570
g892
tp2564
I1
s(g3
g56
g8
g109
tp2565
I1
s(g164
g2
g8
g16
tp2566
I1
s(g56
g88
tp2567
I2
s(g1227
g115
tp2568
I1
s(g2220
g2221
g2222
tp2569
I1
s(g616
g115
tp2570
I1
s(g2182
g2207
g2144
g115
tp2571
I2
s(g2208
g2146
g2147
tp2572
I1
sa(dp2573
((Vfollowing
p2574
g62
tp2575
tp2576
I1
s(g3
g272
g12
g58
tp2577
I1
s(Vat
p2578
tp2579
I2
s((Vher
p2580
S'PRP$'
p2581
tp2582
(Vpersonal
p2583
S'JJ'
p2584
tp2585
tp2586
I2
s(Vremain
p2587
Vin
p2588
Vdetention
p2589
tp2590
I2
s((g2587
g38
tp2591
(g2588
g2166
tp2592
tp2593
I1
s(g88
g3
g184
g56
tp2594
I1
s((Vleader
p2595
S'NN'
p2596
tp2597
(VAung
p2598
g587
tp2599
(VSan
p2600
S'NNP'
p2601
tp2602
(VSuu
p2603
g587
tp2604
tp2605
I2
s(g16
g3
g630
tp2606
I2
s(Vwill
p2607
tp2608
I6
s((Vhospital
p2609
g97
tp2610
tp2611
I2
s((Vpro-democracy
p2612
g50
tp2613
g2597
tp2614
I2
s(g184
g56
g8
tp2615
I1
s(g16
g12
g109
g9
tp2616
I2
s((Vphysician
p2617
g97
tp2618
(Vsaid
p2619
g79
tp2620
tp2621
I2
s(Vhospital
p2622
Vwhere
p2623
Vshe
p2624
tp2625
I2
s(g56
g3
tp2626
I2
s(g16
g8
g30
tp2627
I1
s(Vwill
p2628
Vbe
p2629
Vkept
p2630
Vunder
p2631
tp2632
I2
s((g2628
g35
tp2633
(g2629
g148
tp2634
(g2630
g135
tp2635
(g2631
S'IN'
p2636
tp2637
tp2638
I1
s((VFriday
p2639
S'NNP'
p2640
tp2641
(Vbut
p2642
S'CC'
p2643
tp2644
(Vwill
p2645
g35
tp2646
g2591
tp2647
I1
s(g2635
tp2648
I1
s(g8
g16
g192
tp2649
I2
s((VMyanmar
p2650
g587
tp2651
(V's
p2652
g582
tp2653
tp2654
I2
s((Vfrom
p2655
S'IN'
p2656
tp2657
tp2658
I2
s(VKyi
p2659
g2628
g2629
g2630
tp2660
I2
s(g2589
Vafter
p2661
Vrecovering
p2662
g2655
tp2663
I2
s(g175
g88
g192
tp2664
I2
s(g630
g109
tp2665
I2
s(Vphysician
p2666
Vsaid
p2667
VFriday
p2668
tp2669
I2
s(g2595
g2598
g2600
g2603
tp2670
I4
s((VKyi
p2671
g587
tp2672
(g2607
g35
tp2673
(Vreturn
p2674
g38
tp2675
(Vhome
p2676
g97
tp2677
tp2678
I1
s(g3
g272
tp2679
I1
s(g2676
Vlate
p2680
tp2681
I2
s(g192
g9
g58
g7
tp2682
I2
s((g9
g1260
tp2683
(g2622
g97
tp2684
(g2623
S'WRB'
p2685
tp2686
(g2624
S'PRP'
p2687
tp2688
tp2689
I1
s(g2653
g2613
g2597
tp2690
I2
s(g2672
g2673
g2675
tp2691
I1
s(g16
g8
g7
g9
tp2692
I1
s(g9
g16
g16
g8
tp2693
I1
s(g2595
g2598
g2600
tp2694
I4
s(g164
g16
tp2695
I2
s(g58
g59
g3
tp2696
I1
s(g3
g11
g11
tp2697
I1
s(g164
g3
g11
tp2698
I1
s((Vfrom
p2699
g2656
tp2700
g2683
tp2701
I1
s(g16
g12
tp2702
I3
s(g272
g12
g58
tp2703
I1
s(g16
g272
tp2704
I1
s((g2661
g2257
tp2705
(g2662
g62
tp2706
g2657
tp2707
I1
s(g9
g56
tp2708
I1
s(g175
g12
g2
tp2709
I2
s(g9
g2622
tp2710
I2
s(g2224
g192
g9
tp2711
I2
s(g30
g16
g9
g30
tp2712
I2
s(g2587
tp2713
I2
s(g16
g8
g56
tp2714
I1
s(g2646
g2591
tp2715
I1
s(g9
g164
g2
tp2716
I1
s(g2623
g2624
Vunderwent
p2717
Vsurgery
p2718
tp2719
I2
s(g2578
g9
tp2720
I2
s(g58
g2
tp2721
I2
s(g2
g12
tp2722
I1
s(g2674
tp2723
I2
s(g184
g16
g58
tp2724
I1
s(g58
g2
g12
tp2725
I1
s(g2639
tp2726
I4
s(g184
g56
tp2727
I1
s(g12
g58
tp2728
I6
s(g16
g8
g11
tp2729
I1
s(Vsurgery
p2730
g2578
tp2731
I2
s(g2686
tp2732
I1
s((Vrelease
p2733
g97
tp2734
tp2735
I1
s(g2607
g2674
g2676
tp2736
I2
s(g2673
g2675
g2677
(g2680
g50
tp2737
tp2738
I1
s(g2684
g2686
g2688
(g2717
g50
tp2739
tp2740
I1
s(Vhouse
p2741
Varrest
p2742
tp2743
I2
s(g184
g16
tp2744
I3
s(g2661
g2662
g2655
tp2745
I2
s(g2650
g2652
tp2746
I4
s(g192
g56
tp2747
I2
s(g2650
g2652
g2612
g2595
tp2748
I4
s((g573
g645
tp2749
g2582
tp2750
I2
s(g2610
g2749
g2582
g2585
tp2751
I1
s(g2705
tp2752
I1
s(g109
g8
g2
g8
tp2753
I1
s(g2628
g2629
g2630
tp2754
I2
s(g11
g3
g272
tp2755
I1
s(g12
g9
tp2756
I2
s(g2575
(Vher
p2757
g2581
tp2758
g2734
g2700
tp2759
I1
s(g2631
g2741
tp2760
I2
s(g2655
g2730
tp2761
I2
s(g9
g12
g58
tp2762
I1
s(g2662
g2655
g2730
tp2763
I2
s(g3
g56
g175
tp2764
I2
s(g8
g30
tp2765
I1
s(g175
g12
g2
g9
tp2766
I2
s(g58
g109
tp2767
I2
s(g2653
g2613
tp2768
I2
s(g2684
g2686
g2688
tp2769
I1
s(g3
g11
g11
g3
tp2770
I1
s(g2688
g2739
(g2718
g97
tp2771
tp2772
I1
s(g2683
g2684
tp2773
I1
s(g2588
g2589
g2661
tp2774
I2
s(g2652
tp2775
I4
s(g175
g2
tp2776
I1
s(g2630
g2631
tp2777
I2
s(g16
g12
g58
tp2778
I1
s(g2677
g2737
tp2779
I1
s(g573
tp2780
I10
s(g2589
g2661
tp2781
I2
s(g2737
g2641
g2644
g2646
tp2782
I1
s(g2650
g2652
g2612
tp2783
I4
s(g2602
g2604
g2672
tp2784
I2
s(g793
g56
tp2785
I6
s(g12
g30
tp2786
I2
s(g2583
g2617
g2619
tp2787
I4
s(g2700
g2683
g2684
g2686
tp2788
I1
s(g2644
g2646
g2591
tp2789
I1
s(g16
g3
g630
g109
tp2790
I2
s(g272
g88
g8
g16
tp2791
I1
s(g7
g9
tp2792
I3
s(g2592
(g2589
g97
tp2793
g2705
g2706
tp2794
I1
s(g2655
g2730
g2578
tp2795
I2
s(g58
g9
tp2796
I2
s(g272
g12
g11
g11
tp2797
I3
s(g8
g16
g8
tp2798
I1
s(g2583
g2617
tp2799
I4
s(g3
g58
g9
tp2800
I2
s(g56
g184
tp2801
I2
s(g2742
g2574
g2757
tp2802
I2
s(g2597
tp2803
I2
s(g2771
(g573
g645
tp2804
tp2805
I1
s(g2706
g2657
tp2806
I1
s(g164
g2
g8
tp2807
I1
s(g2635
g2637
(g2741
S'NN'
p2808
tp2809
tp2810
I1
s(g2612
g2595
g2598
tp2811
I4
s(g7
g9
g16
tp2812
I2
s(g2609
g573
g2580
tp2813
I2
s(g2622
g2623
g2624
g2717
tp2814
I2
s(g2604
tp2815
I2
s(g2585
g2618
g2620
(g115
g116
tp2816
tp2817
I1
s(g8
g58
tp2818
I2
s(g2578
g9
VYangon
p2819
tp2820
I2
s(g11
g11
g3
g272
tp2821
I1
s(g2742
g2574
tp2822
I2
s(g2
g184
g16
g58
tp2823
I1
s(g2651
tp2824
I2
s(g2582
g2585
g2618
g2620
tp2825
I2
s(g9
tp2826
I10
s(g2585
g2618
tp2827
I2
s(g2671
tp2828
I4
s(g2771
g2804
(Vher
p2829
g2581
tp2830
tp2831
I1
s(g12
g2
tp2832
I2
s(g164
g16
g3
g7
tp2833
I2
s(g16
g3
g7
tp2834
I2
s(g2733
g2699
g9
tp2835
I2
s((g2578
g2114
tp2836
(g9
g1260
tp2837
(g2819
g587
tp2838
g2610
tp2839
I1
s(g2676
tp2840
I2
s(g175
g88
g192
g56
tp2841
I2
s(g8
g7
g3
tp2842
I2
s(g184
g16
g59
tp2843
I2
s(g16
g16
g8
tp2844
I1
s(g109
g9
tp2845
I2
s(g175
g8
g16
g56
tp2846
I2
s(g56
g184
g16
tp2847
I2
s(g2574
tp2848
I2
s(g8
g7
g3
g30
tp2849
I2
s(g16
g59
g8
g16
tp2850
I2
s(g2741
tp2851
I2
s(g2655
tp2852
I4
s(g9
g12
g109
tp2853
I2
s(g2676
g2680
g2639
g2642
tp2854
I2
s(g2742
tp2855
I2
s(g2591
tp2856
I1
s(g3
g30
tp2857
I2
s(g2642
tp2858
I2
s(g2730
tp2859
I4
s(g2837
g2838
g2610
tp2860
I1
s(g2602
tp2861
I2
s(g2635
g2637
g2809
(g2742
g97
tp2862
tp2863
I1
s(g2623
g2624
tp2864
I2
s(g109
g8
g16
g272
tp2865
I1
s(g2809
g2862
g2575
tp2866
I1
s(g2635
g2637
tp2867
I1
s(g8
g30
g3
tp2868
I1
s(g2793
g2705
tp2869
I1
s(g2662
g2655
tp2870
I2
s(g2631
tp2871
I2
s(g3
g58
g9
g11
tp2872
I2
s(g2637
g2809
g2862
tp2873
I1
s(g2739
g2771
g2804
g2830
tp2874
I1
s(g2657
(g2730
g97
tp2875
g2836
tp2876
I1
s(g2619
tp2877
I4
s(g2624
tp2878
I2
s(g16
g192
tp2879
I2
s(g2607
g2674
g2676
g2680
tp2880
I2
s(g12
g109
g9
g192
tp2881
I2
s(g2819
g2609
tp2882
I2
s(g2599
g2602
g2604
tp2883
I2
s(g2730
g2578
g9
tp2884
I2
s(g2771
g2804
g2830
(Vpersonal
p2885
g2584
tp2886
tp2887
I1
s(g2739
g2771
tp2888
I1
s(g2603
g2671
tp2889
I4
s(g192
g56
g12
g30
tp2890
I2
s(g2630
g2631
g2741
g2742
tp2891
I2
s(g2637
g2809
tp2892
I1
s(g58
g59
g3
g58
tp2893
I1
s(g2580
g2583
g2617
g2619
tp2894
I4
s(g2
g12
g3
g58
tp2895
I1
s(g2620
tp2896
I2
s(g175
g16
g3
tp2897
I2
s(g56
g3
g58
tp2898
I2
s(g2651
g2653
g2613
tp2899
I2
s(g16
g16
tp2900
I1
s(g2680
g2639
g2642
tp2901
I2
s(g2588
tp2902
I2
s(g2595
tp2903
I4
s(g2600
tp2904
I4
s(g2655
g2730
g2578
g9
tp2905
I2
s(g9
g109
g8
g16
tp2906
I2
s(g2673
g2675
tp2907
I1
s(g8
g2
g184
g16
tp2908
I1
s(g56
g2
tp2909
I1
s(g2675
g2677
g2737
tp2910
I1
s(g2667
g2668
g115
tp2911
I2
s(g2705
g2706
g2657
g2875
tp2912
I1
s(g2646
g2591
g2592
tp2913
I1
s(g8
g9
g109
g8
tp2914
I2
s(g2737
tp2915
I1
s(g2637
g2809
g2862
g2575
tp2916
I1
s(g12
g11
g11
tp2917
I3
s(g2718
g573
tp2918
I2
s(g2686
g2688
tp2919
I1
s(g115
tp2920
I10
s(g2604
g2672
tp2921
I2
s(g3
g30
g16
tp2922
I2
s(g2644
tp2923
I1
s(g2657
g2875
tp2924
I1
s(g8
g2
g8
g58
tp2925
I1
s(g3
g11
tp2926
I1
s(g2630
g2631
g2741
tp2927
I2
s(g2634
g2635
g2637
tp2928
I1
s(g2706
g2657
g2875
tp2929
I1
s(g56
g12
tp2930
I2
s(g2739
tp2931
I1
s(g8
g9
g109
tp2932
I2
s((g2666
g97
tp2933
(g2667
g79
tp2934
(g2668
g2640
tp2935
(g115
g116
tp2936
tp2937
I1
s(g2677
g2737
g2641
tp2938
I1
s(g88
g8
g16
tp2939
I7
s(g30
g16
g9
tp2940
I2
s(g2836
g2837
tp2941
I1
s(g11
g3
tp2942
I1
s(g3
g184
g56
g8
tp2943
I1
s(g9
g2622
g2623
g2624
tp2944
I2
s(g192
g56
g12
tp2945
I2
s(g88
g3
g7
tp2946
I1
s(g2733
tp2947
I2
s(g3
g272
g12
tp2948
I1
s(g2631
g2741
g2742
tp2949
I2
s(g16
g56
g3
tp2950
I2
s(g2672
tp2951
I2
s(g2758
g2734
g2700
g2683
tp2952
I1
s(g56
g175
tp2953
I2
s(g2634
tp2954
I1
s(g30
g3
tp2955
I1
s(g2652
g2612
g2595
g2598
tp2956
I4
s(g175
g8
tp2957
I2
s(g11
g9
g2
g8
tp2958
I1
s(g11
g8
g9
g109
tp2959
I2
s(g2730
g2578
g9
g2819
tp2960
I2
s(g2580
g2583
tp2961
I4
s(g88
g3
g7
g8
tp2962
I1
s(g2646
g2591
g2592
g2793
tp2963
I1
s(g573
g2580
g2583
tp2964
I4
s(g2634
g2635
tp2965
I1
s(g16
g8
g7
tp2966
I1
s(g56
g3
g58
g9
tp2967
I2
s(g3
g7
g8
tp2968
I1
s(g88
g3
tp2969
I4
s(g16
g56
g3
g58
tp2970
I2
s(g630
g109
g8
tp2971
I2
s(g2
g184
g16
tp2972
I1
s(g56
g8
tp2973
I2
s(g2583
g2617
g2619
g115
tp2974
I2
s(g2599
g2602
tp2975
I2
s(g2699
g9
g2622
g2623
tp2976
I2
s(g30
g12
g9
g58
tp2977
I2
s(g2673
tp2978
I3
s(g2886
g2933
g2934
g2935
tp2979
I1
s(g2645
g2587
g2588
g2589
tp2980
I2
s(g2717
g2718
g573
g2829
tp2981
I2
s(g30
g3
g242
tp2982
I1
s(g2592
tp2983
I1
s(g2599
tp2984
I2
s((VSuu
p2985
g587
tp2986
(g2659
g587
tp2987
g2633
g2634
tp2988
I1
s(g30
g16
tp2989
I2
s(g7
g9
g12
tp2990
I1
s(g2683
g2684
g2686
tp2991
I1
s(g2609
tp2992
I4
s(g2580
g2583
g2617
tp2993
I4
s(g272
g12
g11
tp2994
I3
s(g16
g8
g2
g184
tp2995
I1
s(g2598
tp2996
I4
s(g3
g242
tp2997
I1
s(g242
g8
tp2998
I1
s(g109
g9
g192
tp2999
I2
s(g2684
g2686
tp3000
I1
s(g2934
g2935
g2936
tp3001
I1
s(g2862
g2575
g2758
g2734
tp3002
I1
s(g3
g184
tp3003
I1
s(g2639
g2642
g2645
g2587
tp3004
I2
s(g12
g109
tp3005
I4
s(g56
g88
g8
tp3006
I2
s(g8
g9
g56
g8
tp3007
I1
s(g16
g56
tp3008
I2
s(g2598
g2600
g2603
tp3009
I4
s(g7
g3
g30
tp3010
I2
s(g56
g9
g12
g109
tp3011
I2
s(g175
g16
g3
g630
tp3012
I2
s(g272
g88
g8
tp3013
I1
s(g2629
g2630
tp3014
I2
s(g2603
g2671
g2607
tp3015
I4
s(g272
g8
g58
tp3016
I1
s(g2588
g2589
tp3017
I2
s(g56
g9
tp3018
I2
s(g58
g9
g11
tp3019
I2
s(g3
g630
g109
g8
tp3020
I2
s(g8
g9
g56
tp3021
I1
s(g2624
g2717
g2718
g573
tp3022
I2
s(g2875
g2836
g2837
g2838
tp3023
I1
s(g12
g30
g12
tp3024
I2
s(g2662
g2655
g2730
g2578
tp3025
I2
s(g2836
g2837
g2838
tp3026
I1
s(g58
g7
g9
g16
tp3027
I2
s(VF
p3028
g16
g12
g109
tp3029
I2
s(g9
g109
g8
tp3030
I2
s(g12
g2
g9
tp3031
I2
s(g604
g9
g58
tp3032
I4
s(g59
g8
g16
tp3033
I2
s(g2749
g2582
g2585
g2618
tp3034
I2
s(g8
g11
g8
tp3035
I1
s(g2582
g2585
g2618
tp3036
I2
s(g8
g7
g9
g12
tp3037
I1
s(g2
g8
tp3038
I3
s(g573
g2580
g2583
g2617
tp3039
I4
s(g109
g8
g2
tp3040
I1
s(g272
g12
tp3041
I4
s(g56
g88
tp3042
I1
s(g2671
g2607
g2674
g2676
tp3043
I2
s(g16
g9
g30
g192
tp3044
I2
s(g2305
g9
tp3045
I1
s(g3
g30
g16
g9
tp3046
I2
s(g12
g2
g9
g11
tp3047
I2
s(g2623
tp3048
I2
s(g2674
g2676
g2680
g2639
tp3049
I2
s(g11
g8
tp3050
I3
s(g9
g192
tp3051
I2
s(g16
g8
tp3052
I6
s(g2688
g2739
g2771
g2804
tp3053
I1
s(g2671
g2607
g2674
tp3054
I2
s(g2575
g2758
tp3055
I1
s(g2631
g2741
g2742
g2574
tp3056
I2
s(g13
g8
g175
tp3057
I1
s(g109
g8
g16
tp3058
I4
s(g12
g58
g59
tp3059
I2
s(g88
g192
tp3060
I2
s(g9
g11
tp3061
I4
s(g2641
g2644
g2646
tp3062
I1
s(g56
g12
g30
g12
tp3063
I2
s(g59
g8
g16
g192
tp3064
I2
s(g2645
g2587
g2588
tp3065
I2
s(g2758
g2734
g2700
tp3066
I1
s(g2623
g2624
g2717
tp3067
I2
s(g2578
g9
g2819
g2609
tp3068
I2
s(g109
g8
g7
g3
tp3069
I2
s(g88
g3
g56
g175
tp3070
I2
s(g2677
g2737
g2641
g2644
tp3071
I1
s(g9
g58
g59
tp3072
I1
s(g2793
tp3073
I1
s(g2675
g2677
tp3074
I1
s(g12
g30
g12
g9
tp3075
I2
s(g2637
tp3076
I1
s(g2652
g2612
tp3077
I4
s(g2875
g2836
g2837
tp3078
I1
s(g2629
tp3079
I2
s(g9
g58
tp3080
I7
s(g2838
g2610
g2749
g2582
tp3081
I1
s(g41
g184
tp3082
I1
s(g56
g184
g16
g59
tp3083
I2
s(g2699
g9
g2622
tp3084
I2
s(g2639
g2642
tp3085
I2
s(g11
g8
g9
tp3086
I3
s(g2837
tp3087
I2
s(g2837
g2838
tp3088
I1
s(g11
g9
tp3089
I1
s(g2587
g2588
tp3090
I2
s(g9
g2819
g2609
tp3091
I2
s(g12
g11
tp3092
I3
s(g2600
g2603
tp3093
I4
s(g2585
tp3094
I2
s(g16
g272
g8
g58
tp3095
I1
s(g2580
tp3096
I6
s(g88
g8
tp3097
I5
s(g2610
g2749
g2582
tp3098
I1
s(g2819
g2609
g573
tp3099
I2
s(g2674
g2676
g2680
tp3100
I2
s(g2600
g2603
g2671
tp3101
I4
s(g2613
tp3102
I2
s(g2985
g2659
g2628
g2629
tp3103
I2
s(g8
g2
tp3104
I2
s(g184
g58
g109
g8
tp3105
I2
s(g16
g8
g56
g2
tp3106
I1
s(g2686
g2688
g2739
g2771
tp3107
I1
s(g2591
g2592
g2793
g2705
tp3108
I1
s(g2809
g2862
tp3109
I1
s(g13
g8
tp3110
I1
s(g2609
g573
tp3111
I2
s(g2651
g2653
g2613
g2597
tp3112
I2
s(g8
g16
g272
tp3113
I1
s(g56
g9
g12
tp3114
I2
s(g2629
g2630
g2631
g2741
tp3115
I2
s(g56
g12
g30
tp3116
I2
s(g2688
g2739
tp3117
I1
s(g2676
g2680
g2639
tp3118
I2
s(g2688
tp3119
I1
s(g7
g8
tp3120
I1
s(g16
g8
g2
tp3121
I1
s(g2624
g2717
g2718
tp3122
I2
s(g2587
g2588
g2589
g2661
tp3123
I2
s(g11
g11
tp3124
I4
s(g2838
g2610
tp3125
I1
s(g2809
tp3126
I1
s(g9
g2622
g2623
tp3127
I2
s(g2
g9
g11
tp3128
I2
s(g9
g109
tp3129
I2
s(g9
g164
g2
g8
tp3130
I1
s(g88
g192
g56
g12
tp3131
I2
s(g2599
g2602
g2604
g2672
tp3132
I2
s(g2672
g2673
tp3133
I2
s(g2622
g2623
tp3134
I2
s(g2
g184
tp3135
I1
s(g30
g12
g9
tp3136
I2
s(g2224
g192
g9
g58
tp3137
I2
s(g8
g175
tp3138
I1
s(g2705
g2706
tp3139
I1
s(g2589
g2661
g2662
tp3140
I2
s(g2617
g2619
g115
tp3141
I2
s(g2592
g2793
g2705
tp3142
I1
s(g2644
g2646
g2591
g2592
tp3143
I1
s(g8
g16
g12
g58
tp3144
I1
s(g16
g272
g8
tp3145
I1
s(g3
g58
tp3146
I4
s(g2875
tp3147
I2
s(g2734
g2700
g2683
tp3148
I1
s(g604
g9
tp3149
I2
s(g2749
g2582
g2585
tp3150
I2
s(g56
g175
g12
g2
tp3151
I2
s(g9
g164
tp3152
I1
s(g272
g8
tp3153
I1
s(g192
g9
g58
tp3154
I2
s(g2650
tp3155
I4
s(g184
g58
g59
tp3156
I2
s(g2591
g2592
g2793
tp3157
I1
s(g58
g109
g8
g16
tp3158
I2
s(g16
g12
g109
tp3159
I2
s(g2666
g2667
g2668
g115
tp3160
I2
s(g2618
g2620
g2816
tp3161
I1
s(g2742
g2574
g2757
g2733
tp3162
I2
s(g8
g58
g2
g12
tp3163
I1
s(g2612
g2595
tp3164
I4
s(VK
p3165
g192
tp3166
I2
s(g8
g56
g2
tp3167
I1
s(g2933
g2934
g2935
tp3168
I1
s(g8
g11
g8
g9
tp3169
I1
s(g109
g8
tp3170
I7
s(g2603
g2671
g2607
g2674
tp3171
I2
s(g3028
g16
g12
tp3172
I2
s(g2619
g115
tp3173
I2
s(g2837
g2838
g2610
g2749
tp3174
I1
s(g3028
g16
tp3175
I2
s(g2758
g2734
tp3176
I1
s(g2674
g2676
tp3177
I2
s(g30
g192
tp3178
I2
s(g9
g12
tp3179
I3
s(g2602
g2604
tp3180
I2
s(g175
g88
tp3181
I2
s(g2602
g2604
g2672
g2673
tp3182
I2
s(g2885
g2666
g2667
g2668
tp3183
I2
s(g630
g109
g8
g7
tp3184
I2
s(g2629
g2630
g2631
tp3185
I2
s(g7
g9
g12
g58
tp3186
I1
s(g2
g8
g16
tp3187
I1
s(g2987
g2633
g2634
tp3188
I1
s(g9
g2819
g2609
g573
tp3189
I2
s(g242
g8
g16
tp3190
I1
s(g11
g3
g272
g12
tp3191
I1
s(g2620
g2816
tp3192
I1
s(g175
g12
tp3193
I2
s(g164
g2
tp3194
I1
s(g9
g58
g7
g9
tp3195
I2
s(g30
g12
tp3196
I2
s(g2574
g2757
g2733
tp3197
I2
s(g2935
g2936
tp3198
I1
s(g2592
g2793
tp3199
I1
s(g41
g184
g2
tp3200
I2
s(g2661
g2662
g2655
g2730
tp3201
I2
s(g2653
g2613
g2597
g2599
tp3202
I2
s(g58
g7
tp3203
I2
s(g2862
g2575
g2758
tp3204
I1
s(g2604
g2672
g2673
tp3205
I2
s(g1347
g184
tp3206
I2
s(g2583
tp3207
I4
s(g2642
g2645
g2587
g2588
tp3208
I2
s(g2653
tp3209
I2
s(g2875
g2836
tp3210
I1
s(g3
g630
g109
tp3211
I2
s(g2612
tp3212
I4
s(g2717
g2718
tp3213
I2
s(g2680
g2639
tp3214
I2
s(g30
g3
g242
g8
tp3215
I1
s(g13
g8
g175
g2
tp3216
I1
s(g184
g184
tp3217
I2
s(g2717
tp3218
I2
s(g2733
g2699
tp3219
I2
s(g16
g58
tp3220
I1
s(g2633
g2634
tp3221
I1
s(g2675
g2677
g2737
g2641
tp3222
I1
s(g11
g8
g9
g56
tp3223
I1
s(g2677
tp3224
I1
s(g164
g3
g11
g11
tp3225
I1
s(g58
g109
g8
tp3226
I2
s(g9
g2819
tp3227
I2
s(g2718
g573
g2829
g2885
tp3228
I2
s(g2793
g2705
g2706
g2657
tp3229
I1
s(g184
g2
tp3230
I1
s(g2641
tp3231
I2
s(g2604
g2672
g2673
g2675
tp3232
I1
s(g2603
tp3233
I4
s(g41
g8
tp3234
I3
s(g2934
g2935
tp3235
I1
s(g8
g2
g8
tp3236
I1
s(g2618
tp3237
I2
s(g2612
g2595
g2598
g2600
tp3238
I4
s(g2
g12
g3
tp3239
I1
s(g272
g12
g58
g59
tp3240
I1
s(g7
g3
tp3241
I2
s(g16
g59
tp3242
I2
s(g2741
g2742
g2574
g2757
tp3243
I2
s(g2574
g2757
tp3244
I2
s(g2816
tp3245
I2
s(g2838
g2610
g2749
tp3246
I1
s(g12
g109
g9
tp3247
I2
s(g2862
tp3248
I1
s(g242
g8
g16
g12
tp3249
I1
s(g8
g30
g3
g242
tp3250
I1
s(g2662
tp3251
I2
s(g2585
g2618
g2620
tp3252
I2
s(g16
g59
g8
tp3253
I2
s(g59
g3
tp3254
I1
s(g2706
g2657
g2875
g2836
tp3255
I1
s(g11
g11
g3
tp3256
I1
s(g88
g192
g56
tp3257
I2
s(g2607
g2674
tp3258
I2
s(g2819
tp3259
I2
s(g16
g8
g30
g3
tp3260
I1
s(g16
g16
g8
g56
tp3261
I1
s(g16
g12
g58
g59
tp3262
I1
s(g109
g8
g7
tp3263
I2
s(g2671
g2607
tp3264
I4
s(g2617
g2619
tp3265
I4
s(g2734
g2700
g2683
g2684
tp3266
I1
s(g2617
tp3267
I4
s(g2657
g2875
g2836
g2837
tp3268
I1
s(g272
g8
g58
g2
tp3269
I1
s(g2836
tp3270
I1
s(g2757
g2733
tp3271
I2
s(g56
g175
g12
tp3272
I2
s(g2613
g2597
g2599
g2602
tp3273
I2
s(g604
g184
tp3274
I2
s(g2661
g2662
tp3275
I2
s(g2699
g9
tp3276
I2
s(g12
g3
g58
tp3277
I1
s(g12
g3
tp3278
I1
s(g2595
g2598
tp3279
I4
s(g2706
tp3280
I1
s(g164
g16
g3
tp3281
I2
s(g9
g58
g7
tp3282
I2
s(g9
g16
tp3283
I3
s(g8
g2
g184
tp3284
I1
s(g2652
g2612
g2595
tp3285
I4
s(g2673
g2675
g2677
tp3286
I1
s(g11
g9
g2
tp3287
I1
s(g2305
g9
g58
tp3288
I1
s(g88
g3
g184
tp3289
I1
s(g9
g30
tp3290
I2
s(g2838
tp3291
I1
s(g8
g58
g2
tp3292
I2
s(g2667
g2668
tp3293
I2
s(g2630
tp3294
I2
s(g9
g58
g59
g3
tp3295
I1
s(g1347
g184
g58
g59
tp3296
I2
s(g2661
tp3297
I2
s(g2597
g2599
tp3298
I2
s(g2589
tp3299
I2
s(g192
g9
tp3300
I2
s(g3
g56
g175
g12
tp3301
I2
s(g8
g9
tp3302
I3
s(g12
g9
g58
tp3303
I2
s(g8
g7
g9
tp3304
I1
s(g9
g2
tp3305
I4
s(g88
g8
g16
g8
tp3306
I1
s(g604
g184
g184
tp3307
I4
s(g8
g16
g56
tp3308
I2
s(g3
g630
tp3309
I2
s(g2680
tp3310
I2
s(g2668
g115
tp3311
I2
s(g2675
tp3312
I1
s(g164
g3
tp3313
I1
s(g2628
g2629
tp3314
I2
s(g272
g88
tp3315
I1
s(g175
g16
tp3316
I2
s(g3
g242
g8
g16
tp3317
I1
s(g2633
g2634
g2635
tp3318
I1
s(g2597
g2599
g2602
tp3319
I2
s(g59
g3
g58
tp3320
I1
s(g2610
g2749
tp3321
I1
s(g2862
g2575
tp3322
I1
s(g2733
g2699
g9
g2622
tp3323
I2
s(g16
g3
tp3324
I4
s(g2741
g2742
g2574
tp3325
I2
s(g58
g59
tp3326
I5
s(g3
g184
g56
tp3327
I1
s(g2644
g2646
tp3328
I1
s(g2680
g2639
g2642
g2645
tp3329
I2
s(g175
g8
g16
tp3330
I2
s(g7
g3
g30
g16
tp3331
I2
s(g2642
g2645
tp3332
I2
s(g8
g56
tp3333
I1
s(g2639
g2642
g2645
tp3334
I2
s(g16
g8
g11
g8
tp3335
I1
s(g573
g2580
tp3336
I4
s(g2641
g2644
tp3337
I1
s(g8
g7
tp3338
I3
s(g8
g16
g56
g3
tp3339
I2
s(g2718
g573
g2829
tp3340
I2
s(g2613
g2597
g2599
tp3341
I2
s(g2819
g2609
g573
g2580
tp3342
I2
s(g2588
g2589
g2661
g2662
tp3343
I2
s(g3165
g192
g12
tp3344
I4
s(g16
g9
g30
tp3345
I2
s(g2809
g2862
g2575
g2758
tp3346
I1
s(g2717
g2718
g573
tp3347
I2
s(g8
g16
tp3348
I14
s(g2987
g2633
g2634
g2635
tp3349
I1
s(g3
g242
g8
tp3350
I1
s(g1347
g184
g58
tp3351
I2
s(g8
g11
tp3352
I1
s(g2634
g2635
g2637
g2809
tp3353
I1
s(g9
g30
g192
tp3354
I2
s(g184
g58
tp3355
I4
s(g59
g8
tp3356
I2
s(g3
g56
tp3357
I2
s(g9
g2
g8
tp3358
I1
s(g2737
g2641
tp3359
I1
s(g16
g9
tp3360
I2
s(g8
g175
g2
tp3361
I1
s(g2582
tp3362
I3
s(g2
g8
g58
tp3363
I1
s(g2757
g2733
g2699
tp3364
I2
s(g2659
g2628
g2629
tp3365
I2
s(g2574
g2757
g2733
g2699
tp3366
I2
s(g184
g16
g59
g8
tp3367
I2
s(g3
g7
tp3368
I3
s(g2749
tp3369
I2
s(g2598
g2600
tp3370
I4
s(g58
g2
g12
g3
tp3371
I1
s(g2737
g2641
g2644
tp3372
I1
s(g2642
g2645
g2587
tp3373
I2
s(g2
g8
g58
g2
tp3374
I1
s(g2757
g2733
g2699
g9
tp3375
I2
s(g2793
g2705
g2706
tp3376
I1
s(g192
g12
tp3377
I2
s(g8
g16
g12
tp3378
I1
s(g2
g9
tp3379
I2
s(g9
g16
g16
tp3380
I1
s(g9
g56
g8
tp3381
I1
s(g2224
g192
tp3382
I2
s(g2609
g573
g2580
g2583
tp3383
I2
s(g2739
g2771
g2804
tp3384
I1
s(g2734
g2700
tp3385
I1
s(g2686
g2688
g2739
tp3386
I1
s(g2305
g9
g58
g59
tp3387
I1
s(g8
g16
g272
g8
tp3388
I1
s(g88
g3
g56
tp3389
I2
s(g2575
g2758
g2734
tp3390
I1
s(g58
g7
g9
tp3391
I2
s(g2600
g2603
g2671
g2607
tp3392
I4
s(g184
g58
g109
tp3393
I2
s(g2624
g2717
tp3394
I2
s(g164
g2
g8
g16
tp3395
I1
s(g2700
g2683
g2684
tp3396
I1
s(g2598
g2600
g2603
g2671
tp3397
I4
s(g2645
g2587
tp3398
I2
sa(dp3399
(g2
g3
tp3400
I7
s(Vthe
p3401
tp3402
I2
s(g58
g8
g109
tp3403
I2
s(g184
g16
g56
g109
tp3404
I1
s(g12
g2
g12
g30
tp3405
I1
s(g7
g7
tp3406
I3
s(g16
g8
tp3407
I1
s(VDopp
p3408
tp3409
I2
s((g3401
g47
tp3410
tp3411
I1
s(g30
g12
g56
g7
tp3412
I1
s(g12
g2
g12
tp3413
I1
s(VSpitzer
p3414
V's
p3415
tp3416
I2
s(g2
g1146
tp3417
I2
s(g87
g88
g184
tp3418
I1
s(g12
g58
g59
tp3419
I1
s(g30
g11
g12
g58
tp3420
I2
s(g604
g175
tp3421
I2
s(VMr.
p3422
g3414
g3415
Vcriticism
p3423
tp3424
I2
s(g3422
g3414
tp3425
I2
s((g573
g645
tp3426
(g9
g1260
tp3427
(VSpitzer
p3428
g587
tp3429
(Vspokesman
p3430
S'NN'
p3431
tp3432
tp3433
I1
s(VWashington
p3434
tp3435
I2
s(g3432
(g573
g645
tp3436
(Vdeclined
p3437
g592
tp3438
tp3439
I1
s(Vto
p3440
tp3441
I4
s((VDarren
p3442
g587
tp3443
(g3408
g587
tp3444
g3426
tp3445
I1
s(g1911
g3
g175
tp3446
I1
s((VJohn
p3447
S'NNP'
p3448
tp3449
(VHeine
p3450
g587
tp3451
(g573
g645
tp3452
(g9
g1260
tp3453
tp3454
I1
s(g58
g59
g2
tp3455
I1
s((Vin
p3456
g2166
tp3457
(g3434
S'NNP'
p3458
tp3459
(g573
g645
tp3460
(Vdeclined
p3461
g592
tp3462
tp3463
I1
s(g56
g56
g12
g3
tp3464
I1
s(g3408
g573
tp3465
I2
s(g3444
g3426
g3427
tp3466
I1
s(g573
g3437
g3440
tp3467
I4
s(VThursday
p3468
tp3469
I2
s(g3447
tp3470
I2
s(g9
g58
tp3471
I2
s(g3434
g573
tp3472
I2
s(g56
g109
tp3473
I1
s(g3408
g573
g9
g3428
tp3474
I2
s((g3468
S'NNP'
p3475
tp3476
tp3477
I1
s(g9
g3428
tp3478
I2
s(g175
g3
g13
tp3479
I2
s(g3459
tp3480
I1
s((Vcomment
p3481
g38
tp3482
(Von
p3483
g1760
tp3484
(g3422
S'NNP'
p3485
tp3486
tp3487
I1
s(g11
g9
tp3488
I1
s(g7
g12
tp3489
I1
s(g16
g12
tp3490
I1
s(g9
g192
tp3491
I1
s(Vfor
p3492
g3401
Vcommission
p3493
tp3494
I2
s(g11
g9
g2
g8
tp3495
I1
s(g8
g56
g7
tp3496
I2
s(g9
g56
tp3497
I1
s(g175
g12
g2
tp3498
I2
s(g3410
(g3493
S'NN'
p3499
tp3500
g3457
g3459
tp3501
I1
s(g2
g12
g30
tp3502
I1
s(g3484
tp3503
I1
s(g3486
tp3504
I1
s(g7
g8
g58
g2
tp3505
I2
s(g2
g88
g8
tp3506
I2
s(g2
g12
g30
g12
tp3507
I1
s(g3493
g3456
g3434
g573
tp3508
I2
s(g164
g3
g16
tp3509
I2
s(g58
g2
tp3510
I2
s((g3492
S'IN'
p3511
tp3512
g3410
g3500
tp3513
I1
s(g2
g12
tp3514
I1
s(g3401
g3493
g3456
g3434
tp3515
I2
s(g3429
g3432
g3436
tp3516
I1
s(Vspokesman
p3517
g3492
g3401
tp3518
I2
s(g302
g8
g12
tp3519
I1
s((g3415
g582
tp3520
(g3423
S'NN'
p3521
tp3522
(g115
g116
tp3523
tp3524
I1
s(g3401
g3493
tp3525
I2
s(g9
g3428
g3430
g573
tp3526
I2
s(g1911
g3
g175
g175
tp3527
I1
s(g1493
g3
g88
tp3528
I1
s(g3430
g573
tp3529
I2
s(g175
g175
tp3530
I1
s(g12
g58
tp3531
I7
s((g3517
g3431
tp3532
g3512
g3410
g3500
tp3533
I1
s(g3517
g3492
tp3534
I2
s(g8
g58
g2
tp3535
I2
s(g13
g8
tp3536
I2
s(g3427
g3429
tp3537
I1
s(g9
g3428
g3430
tp3538
I2
s(g59
g2
tp3539
I1
s(g3492
g3401
g3493
g3456
tp3540
I2
s(g3437
g3440
tp3541
I4
s(g184
g16
tp3542
I1
s(g3429
g3432
g3436
g3438
tp3543
I1
s(g3436
g3438
(g3440
g137
tp3544
tp3545
I2
s(g3432
tp3546
I2
s(g7
g12
g56
tp3547
I1
s(g604
g175
g12
tp3548
I2
s(g3410
g3500
tp3549
I1
s(Vcomment
p3550
Vlate
p3551
g3468
tp3552
I2
s(g3550
g3551
tp3553
I2
s(g3484
g3486
(g3414
g587
tp3554
g3520
tp3555
I1
s(g58
g8
tp3556
I3
s(g3484
g3486
g3554
tp3557
I1
s(g3437
g3440
g3550
g3551
tp3558
I2
s(g175
g12
g2
g1146
tp3559
I2
s(g3461
Vto
p3560
g3481
g3483
tp3561
I2
s(g3544
(g3550
g38
tp3562
(g3551
g33
tp3563
tp3564
I1
s(g3438
g3544
tp3565
I2
s(g3562
tp3566
I2
s(g3550
tp3567
I4
s(g109
g8
tp3568
I2
s(g3428
tp3569
I4
s(g8
g30
tp3570
I2
s(g12
g2
g1146
tp3571
I2
s(g3520
g3522
tp3572
I1
s(g56
g175
g3
tp3573
I2
s(g30
g3
g7
tp3574
I3
s(g573
g9
g3428
g3430
tp3575
I2
s(g3415
tp3576
I2
s(g3500
g3457
tp3577
I1
s(g1493
g3
tp3578
I1
s(g12
g58
g8
tp3579
I3
s(g573
tp3580
I20
s(g3428
g3430
tp3581
I2
s(g3532
g3512
tp3582
I1
s(g793
g56
tp3583
I3
s(g12
g30
tp3584
I1
s(g3415
g3423
g115
tp3585
I2
s(g3440
g3550
g3551
tp3586
I2
s(g58
g59
g2
g3
tp3587
I1
s(g9
g3517
g3492
g3401
tp3588
I2
s(g16
g115
tp3589
I1
s(g12
g56
g56
g12
tp3590
I1
s(g88
g184
g16
tp3591
I1
s(g56
g109
g9
tp3592
I1
s(g3492
g3401
tp3593
I2
s(g3423
tp3594
I2
s(g3429
g3432
tp3595
I1
s(g3426
g3427
tp3596
I2
s(g7
g9
tp3597
I2
s(g3462
(g3560
g137
tp3598
g3482
g3484
tp3599
I1
s(g3459
g3460
tp3600
I1
s(g56
g175
g3
g13
tp3601
I2
s(g16
g56
g109
g9
tp3602
I1
s(g3443
tp3603
I1
s(g3429
tp3604
I2
s(g59
g2
g3
g58
tp3605
I1
s(g2
g1146
g8
tp3606
I2
s(g3483
g3422
g3414
g3415
tp3607
I2
s(g3449
tp3608
I1
s(g3482
g3484
g3486
g3554
tp3609
I1
s(g3476
(g115
g116
tp3610
tp3611
I1
s(g3457
g3459
g3460
tp3612
I1
s(g3550
g3551
g3468
g115
tp3613
I2
s(g3423
g115
tp3614
I2
s(g7
g8
g58
tp3615
I2
s(g30
g3
g7
g7
tp3616
I3
s(g13
g8
g56
g7
tp3617
I2
s(g3562
g3563
g3476
tp3618
I1
s(g3450
g573
g9
tp3619
I2
s(g3
g7
g7
g12
tp3620
I1
s(g12
g30
g12
g56
tp3621
I1
s(g3444
tp3622
I1
s(g30
g11
g12
tp3623
I2
s(g3598
g3482
g3484
tp3624
I1
s(g8
g58
tp3625
I3
s(g3427
tp3626
I2
s(g7
g8
tp3627
I2
s(g3486
g3554
g3520
g3522
tp3628
I1
s(g9
g3517
g3492
tp3629
I2
s(g3610
tp3630
I2
s(g175
g12
tp3631
I2
s(g9
tp3632
I10
s(g30
g12
tp3633
I1
s(g12
g2
tp3634
I3
s(g16
g12
g2
tp3635
I1
s(g56
g7
g9
g58
tp3636
I2
s(g3483
g3422
tp3637
I2
s(g3459
g3460
g3462
g3598
tp3638
I1
s(g3493
g3456
tp3639
I2
s(g3554
g3520
g3522
tp3640
I1
s(g3
g13
g8
g56
tp3641
I2
s(g3415
g3423
tp3642
I2
s(g3447
g3450
g573
g9
tp3643
I2
s(g2
g3
g58
tp3644
I1
s(g1911
g9
tp3645
I1
s(g12
g2
g1146
g8
tp3646
I2
s(g573
g9
g3428
tp3647
I2
s(g3520
tp3648
I1
s(g56
g88
g12
tp3649
I1
s(g16
g16
g8
tp3650
I1
s(g109
g9
tp3651
I1
s(g12
g58
g59
g2
tp3652
I1
s(g1854
g9
tp3653
I1
s(g3428
g3430
g573
g3437
tp3654
I2
s(g3436
g3438
g3544
g3562
tp3655
I2
s(g3449
g3451
g3452
tp3656
I1
s(g3544
tp3657
I2
s(g3442
g3408
g573
g9
tp3658
I2
s(g3484
g3486
tp3659
I1
s(g2224
g16
tp3660
I1
s(g11
g9
g2
tp3661
I1
s(g87
g88
g184
g16
tp3662
I1
s(g3563
g3476
g3610
tp3663
I1
s(g3
g88
tp3664
I1
s(g7
g12
g56
g56
tp3665
I1
s(g3451
tp3666
I1
s(g3432
g3436
g3438
g3544
tp3667
I1
s(g604
g175
g12
g2
tp3668
I2
s(g1854
g9
g56
tp3669
I1
s(g3468
g115
tp3670
I2
s(g3522
tp3671
I1
s(g7
g7
g8
g58
tp3672
I2
s(g56
g7
g9
tp3673
I2
s(g88
g12
tp3674
I1
s(g302
g8
tp3675
I1
s(g3450
g573
g9
g3517
tp3676
I2
s(g9
g2
g8
tp3677
I1
s(g56
g56
tp3678
I1
s(g3459
g3460
g3462
tp3679
I1
s(g3500
g3457
g3459
g3460
tp3680
I1
s(g3486
g3554
tp3681
I1
s(g3481
g3483
g3422
tp3682
I2
s(g3451
g3452
tp3683
I1
s(g56
g7
tp3684
I3
s(g12
g58
g8
g109
tp3685
I2
s(g16
g56
g109
tp3686
I1
s(g1911
g9
g16
tp3687
I1
s(g3554
g3520
g3522
g3523
tp3688
I1
s(g3434
g573
g3461
g3560
tp3689
I2
s(g30
g11
tp3690
I2
s(g3562
g3563
g3476
g3610
tp3691
I1
s(g16
g16
tp3692
I1
s(g3456
tp3693
I2
s(g88
g12
g58
g59
tp3694
I1
s(g2
g88
tp3695
I1
s(g3512
g3410
tp3696
I1
s(g9
g3517
tp3697
I2
s(g1146
g8
tp3698
I2
s(g56
g56
g12
tp3699
I1
s(g3453
g3532
tp3700
I1
s(g9
g16
g16
g8
tp3701
I1
s(g3427
g3429
g3432
tp3702
I1
s(g8
g12
g58
g8
tp3703
I1
s(g9
g16
g16
tp3704
I1
s(g16
g16
g8
g58
tp3705
I1
s(g30
g12
g56
tp3706
I1
s(g3444
g3426
g3427
g3429
tp3707
I1
s(g3544
g3562
tp3708
I2
s(g3438
g3544
g3562
g3563
tp3709
I1
s(g11
g12
g58
tp3710
I2
s(g87
g88
tp3711
I1
s(g3481
g3483
g3422
g3414
tp3712
I2
s(g8
g12
tp3713
I1
s(g30
g16
g12
tp3714
I1
s(g7
g7
g8
tp3715
I2
s(g3438
tp3716
I2
s(g3551
g3468
tp3717
I2
s(g175
g3
g13
g8
tp3718
I2
s(g3438
g3544
g3562
tp3719
I2
s(g573
g9
tp3720
I4
s(g115
tp3721
I10
s(g3562
g3563
tp3722
I1
s(g3440
g3550
g3551
g3468
tp3723
I2
s(g88
g184
tp3724
I1
s(g3401
g3493
g3456
tp3725
I2
s(g573
g3437
g3440
g3550
tp3726
I4
s(g8
g12
g58
tp3727
I1
s(g3426
g3427
g3429
tp3728
I1
s(g88
g184
g16
g56
tp3729
I1
s(g3563
tp3730
I1
s(g16
g12
g2
g12
tp3731
I1
s(g2
g1146
g8
g16
tp3732
I2
s(g56
g12
tp3733
I1
s(g1911
g9
g16
g16
tp3734
I1
s(g3430
g573
g3437
g3440
tp3735
I2
s(g109
g8
g30
g11
tp3736
I2
s(g9
g2
tp3737
I1
s(g2224
g16
g115
tp3738
I2
s(g3447
g3450
g573
tp3739
I2
s(g9
g56
g88
tp3740
I1
s(g3493
g3456
g3434
tp3741
I2
s(g9
g56
g88
g12
tp3742
I1
s(g3410
g3500
g3457
tp3743
I1
s(g3
g175
g175
tp3744
I1
s(g3486
g3554
g3520
tp3745
I1
s(g3456
g3434
g573
tp3746
I2
s(g56
g12
g3
tp3747
I1
s(g3481
g3483
tp3748
I2
s(g164
g3
tp3749
I1
s(g3
g13
tp3750
I2
s(g3
g88
g58
tp3751
I1
s(g3483
tp3752
I2
s(g3450
tp3753
I2
s(g3
g16
tp3754
I1
s(g3
g7
g7
tp3755
I3
s(g3414
g3415
g3423
g115
tp3756
I2
s(g3
g13
g8
tp3757
I2
s(g56
g175
tp3758
I2
s(g3544
g3562
g3563
g3476
tp3759
I1
s(g109
g8
g30
tp3760
I2
s(g3492
tp3761
I2
s(g3493
tp3762
I2
s(g3551
g3468
g115
tp3763
I2
s(g3434
g573
g3461
tp3764
I2
s(g30
g3
tp3765
I3
s(g88
g58
tp3766
I1
s(g1493
g3
g88
g58
tp3767
I1
s(g3437
tp3768
I4
s(g302
g8
g12
g58
tp3769
I1
s(g8
g109
tp3770
I2
s(g58
g59
tp3771
I1
s(g3442
g3408
tp3772
I2
s(g3422
tp3773
I2
s(g3457
tp3774
I1
s(g3522
g3523
tp3775
I1
s(g573
g9
g3517
g3492
tp3776
I2
s(g3443
g3444
tp3777
I1
s(g7
g7
g12
g56
tp3778
I1
s(g1854
g9
g56
g88
tp3779
I1
s(g30
g16
g12
g2
tp3780
I1
s(g3500
g3457
g3459
tp3781
I1
s(g3456
g3434
g573
g3461
tp3782
I2
s(g3427
g3429
g3432
g3436
tp3783
I1
s(g3500
tp3784
I1
s(g1911
g3
tp3785
I1
s(g3450
g573
tp3786
I2
s(g2
g8
tp3787
I1
s(g3430
tp3788
I4
s(g3457
g3459
tp3789
I1
s(g3449
g3451
tp3790
I1
s(g3442
tp3791
I2
s(g3512
tp3792
I1
s(g30
g16
tp3793
I1
s(g8
g16
tp3794
I2
s(g3451
g3452
g3453
tp3795
I1
s(g3452
g3453
g3532
tp3796
I1
s(g3452
g3453
g3532
g3512
tp3797
I1
s(g3532
g3512
g3410
tp3798
I1
s(g7
g7
g12
tp3799
I1
s(g12
g56
tp3800
I2
s(g3554
g3520
tp3801
I1
s(g3
g58
tp3802
I5
s(g3436
g3438
tp3803
I2
s(g1146
g8
g16
tp3804
I2
s(g12
g56
g7
tp3805
I1
s(g88
g8
tp3806
I1
s(g109
g9
g192
tp3807
I1
s(g3512
g3410
g3500
g3457
tp3808
I1
s(g3440
g3550
tp3809
I4
s(g3451
g3452
g3453
g3532
tp3810
I1
s(g3
g175
tp3811
I1
s(g8
g56
tp3812
I2
s(g3482
g3484
tp3813
I1
s(g3483
g3422
g3414
tp3814
I2
s(g11
g12
tp3815
I2
s(g3443
g3444
g3426
g3427
tp3816
I1
s(g8
g30
g11
g12
tp3817
I2
s(g3444
g3426
tp3818
I1
s(g184
g16
g56
tp3819
I1
s(g16
g56
tp3820
I1
s(g573
g9
g3517
tp3821
I2
s(g8
g30
g11
tp3822
I2
s(g3422
g3414
g3415
tp3823
I2
s(g56
g109
g9
g192
tp3824
I1
s(g3
g7
g7
g8
tp3825
I2
s(g3517
g3492
g3401
g3493
tp3826
I2
s(g3
g7
tp3827
I3
s(g3426
tp3828
I4
s(g13
g8
g56
tp3829
I2
s(g573
g3437
tp3830
I4
s(g3598
g3482
g3484
g3486
tp3831
I1
s(g3563
g3476
tp3832
I1
s(g11
g12
g58
g8
tp3833
I2
s(g12
g3
g58
tp3834
I1
s(g12
g3
tp3835
I1
s(g3453
g3532
g3512
tp3836
I1
s(g3430
g573
g3437
tp3837
I2
s(g3414
g3415
g3423
tp3838
I2
s(g16
g8
g58
tp3839
I1
s(g12
g30
g12
tp3840
I1
s(g3551
tp3841
I2
s(g88
g12
g58
tp3842
I1
s(g3453
g3532
g3512
g3410
tp3843
I1
s(g3560
g3481
g3483
g3422
tp3844
I2
s(g3447
g3450
tp3845
I2
s(g3428
g3430
g573
tp3846
I2
s(g59
g2
g3
tp3847
I1
s(g3408
g573
g9
tp3848
I2
s(g56
g12
g3
g58
tp3849
I1
s(g12
g56
g56
tp3850
I1
s(g7
g9
g58
tp3851
I2
s(g56
g88
g12
g58
tp3852
I1
s(g3437
g3440
g3550
tp3853
I4
s(g3432
g3436
tp3854
I1
s(g56
g88
tp3855
I1
s(g8
g56
g7
g9
tp3856
I2
s(g3456
g3434
tp3857
I2
s(g3442
g3408
g573
tp3858
I2
s(g175
g3
tp3859
I2
s(g9
g16
tp3860
I1
s(g3560
g3481
g3483
tp3861
I2
sa(dp3862
(Vnationwide
p3863
Vprogram
p3864
tp3865
I2
s(Vthe
p3866
tp3867
I4
s(Vand
p3868
Vbuild
p3869
Vcommunity
p3870
Vproject
p3871
tp3872
I2
s(g11
g12
g3
g58
tp3873
I2
s((g2116
g2117
tp3874
tp3875
I2
s(g12
g2
g12
tp3876
I1
s(g617
g630
g7
tp3877
I1
s(g58
g3
tp3878
I3
s((Vnext
p3879
g50
tp3880
(Vtwo
p3881
S'CD'
p3882
tp3883
(Vweeks
p3884
S'NNS'
p3885
tp3886
(Vto
p3887
g137
tp3888
tp3889
I2
s(g3866
g3879
tp3890
I4
s(g8
g2
g9
tp3891
I1
s(Vcommunity
p3892
Vproject
p3893
g573
Vbut
p3894
tp3895
I1
s(Vlaunch
p3896
g9
VUS
p3897
g2116
tp3898
I2
s(g9
g2
g12
tp3899
I2
s(Vhe
p3900
tp3901
I2
s(g3
g59
g16
tp3902
I2
s((Vin
p3903
g2166
tp3904
(g3866
g47
tp3905
tp3906
I2
s(g7
g12
g11
tp3907
I2
s(g3881
Vweek
p3908
tp3909
I2
s(Vmillion
p3910
g3863
g3864
g3903
tp3911
I2
s(V70-million
p3912
Vprogram
p3913
Vin
p3914
Vthe
p3915
tp3916
I2
s(g8
g2
g9
g12
tp3917
I1
s(Vno
p3918
Vdetail
p3919
g115
tp3920
I1
s(g3
g3
g109
g56
tp3921
I2
s(g652
g617
tp3922
I4
s((g3896
g38
tp3923
tp3924
I2
s((Vwould
p3925
S'MD'
p3926
tp3927
(Vlaunch
p3928
g38
tp3929
(g9
g1260
tp3930
tp3931
I1
s(Vprojects
p3932
g573
g3894
tp3933
I1
s(g9
g658
tp3934
I1
s(g3
g16
g88
g3
tp3935
I2
s(g3918
tp3936
I2
s((g3863
g50
tp3937
(g3864
S'NN'
p3938
tp3939
tp3940
I1
s((Vneighborhoods
p3941
g43
tp3942
(Vacross
p3943
g45
tp3944
tp3945
I1
s((g3894
g2643
tp3946
(Vgave
p3947
S'VBD'
p3948
tp3949
tp3950
I1
s((g3910
S'CD'
p3951
tp3952
g3937
tp3953
I1
s(g272
g8
g8
tp3954
I2
s(g3887
Vclean
p3955
Vup
p3956
tp3957
I4
s((g3955
g38
tp3958
tp3959
I2
s(g3925
g3928
g9
g2116
tp3960
I2
s(g175
g16
g3
g59
tp3961
I2
s(g16
g3
g59
g16
tp3962
I2
s(g2116
V70
p3963
tp3964
I2
s(g3893
g573
tp3965
I1
s(g3894
g3947
g3918
tp3966
I2
s(g3892
g3932
g573
g3894
tp3967
I1
s((g3870
S'NN'
p3968
tp3969
tp3970
I2
s(g12
g11
g11
g12
tp3971
I2
s(Vprojects
p3972
g115
tp3973
I1
s(g3923
(g9
g1260
tp3974
tp3975
I2
s((g3897
g587
tp3976
g3874
(g3963
S'CD'
p3977
tp3978
g3952
tp3979
I1
s(Vto
p3980
g3896
tp3981
I2
s(g3943
tp3982
I2
s(g184
g12
g11
tp3983
I2
s(g3
g56
g56
tp3984
I1
s(g11
g11
g12
tp3985
I2
s((Vone
p3986
g561
tp3987
(Vinitiative
p3988
g97
tp3989
(Vis
p3990
g102
tp3991
tp3992
I1
s(g3930
(g2116
g2117
tp3993
tp3994
I1
s(g3888
g3958
tp3995
I2
s(g3896
tp3996
I4
s(g3
g184
tp3997
I1
s(g3864
tp3998
I4
s(g3969
(g3972
S'NNS'
p3999
tp4000
tp4001
I2
s(g2
g9
g12
tp4002
I1
s(g3
Vj
p4003
g8
g30
tp4004
I2
s(g3963
g3910
tp4005
I2
s((VBremer
p4006
g587
tp4007
(Vsaid
p4008
g79
tp4009
g3987
tp4010
I1
s(g2
g12
tp4011
I3
s(g3863
tp4012
I2
s(g12
g11
g11
tp4013
I2
s(g2116
g3963
g3910
g3863
tp4014
I2
s(Vneighborhood
p4015
g3868
tp4016
I1
s(g12
g58
tp4017
I7
s(Vneighborhood
p4018
g3943
tp4019
I1
s(g59
g16
tp4020
I2
s(g9
g184
tp4021
I2
s(g3900
g3925
g3928
tp4022
I2
s((Vdetails
p4023
S'NNS'
p4024
tp4025
(g115
g116
tp4026
tp4027
I1
s(g3870
tp4028
I4
s((Vneighborhoods
p4029
g43
tp4030
(g3868
S'CC'
p4031
tp4032
tp4033
I1
s(g8
g13
g56
tp4034
I2
s(g2116
g3912
g3913
tp4035
I2
s(g4015
tp4036
I2
s((g3918
S'DT'
p4037
tp4038
tp4039
I1
s(g3939
g3904
g3905
tp4040
I2
s((g3956
S'RP'
p4041
tp4042
g4030
tp4043
I2
s(g3955
g3956
g4029
tp4044
I2
s(g58
g8
g672
g2
tp4045
I2
s(g12
g9
tp4046
I1
s(g4032
(g3869
g38
tp4047
tp4048
I2
s(VIraq
p4049
Vand
p4050
Vbuild
p4051
tp4052
I2
s(g3989
g3991
(g3980
g137
tp4053
g3923
tp4054
I1
s(g3886
g3888
tp4055
I2
s(g3949
g4038
g4025
g4026
tp4056
I1
s(g4053
g3923
g3974
g3976
tp4057
I1
s(g41
g3
g16
g88
tp4058
I2
s(g3986
tp4059
I2
s(g4047
g3969
tp4060
I2
s(g3883
g3886
g3888
tp4061
I2
s(g3897
g2116
tp4062
I2
s(g30
g3
g7
tp4063
I2
s(g30
g2
tp4064
I2
s(g12
g109
g8
tp4065
I1
s(VB
p4066
g16
tp4067
I2
s(g3955
g3956
g4029
g3868
tp4068
I1
s((g3932
g3999
tp4069
(g573
g645
tp4070
g3946
g3949
tp4071
I1
s(g573
tp4072
I5
s(g3989
g3991
tp4073
I1
s(g3912
g3913
tp4074
I2
s(g573
g3894
g3947
tp4075
I2
s(g3870
g3972
tp4076
I2
s(g3976
g3874
tp4077
I1
s(g4015
g3868
g3869
g3870
tp4078
I1
s(g3990
tp4079
I2
s((VBremer
p4080
g587
tp4081
(Vsaid
p4082
g79
tp4083
(g3900
S'PRP'
p4084
tp4085
g3927
tp4086
I1
s(g4029
tp4087
I2
s(g3944
tp4088
I1
s(g4018
g3943
g4049
g4050
tp4089
I1
s(g3874
g3978
g3952
g3937
tp4090
I1
s(g2
g12
g9
g2
tp4091
I1
s(g3903
g3866
g3879
tp4092
I4
s(g3905
g3880
g3883
g3886
tp4093
I2
s(g58
g9
tp4094
I1
s(g3897
tp4095
I2
s(g4082
g3900
g3925
g3928
tp4096
I2
s(g3893
g573
g3894
tp4097
I1
s(g3943
g4049
g4050
g4051
tp4098
I2
s(g4007
g4009
tp4099
I2
s(g11
g9
g184
tp4100
I2
s(g3884
g3887
g3955
g3956
tp4101
I2
s(g4042
tp4102
I2
s(g3939
g3904
tp4103
I2
s(g3932
g573
g3894
g3947
tp4104
I1
s(g58
g12
g2
g192
tp4105
I2
s(g3987
g3989
tp4106
I1
s(g608
g16
tp4107
I1
s(g4006
g4008
g3986
g3988
tp4108
I2
s(g3919
tp4109
I1
s(g9
tp4110
I10
s(g3894
g3947
tp4111
I2
s(g3978
g3952
tp4112
I1
s(g7
g7
g184
g58
tp4113
I2
s(g88
g41
tp4114
I2
s(g12
g2
tp4115
I3
s(g3908
g3887
g3955
g3956
tp4116
I2
s(g3937
g3939
g3904
tp4117
I1
s(g3864
g3903
tp4118
I4
s(g3881
g3884
g3887
tp4119
I2
s(g3879
g3881
g3908
g3887
tp4120
I2
s(g16
g88
g3
tp4121
I2
s(g58
g9
g2
g12
tp4122
I1
s(g4032
tp4123
I2
s(g3
g109
tp4124
I2
s(g4083
g4085
g3927
g3929
tp4125
I1
s(g9
g30
g16
g3
tp4126
I1
s(g11
g12
g3
tp4127
I2
s(g4015
g3868
g3869
tp4128
I1
s(g16
g9
g658
tp4129
I1
s(g4007
g4009
g3987
g3989
tp4130
I1
s(g3903
g3866
g3879
g3881
tp4131
I4
s(g3903
g3866
tp4132
I4
s(g3912
tp4133
I2
s(g3978
g3952
g3937
g3939
tp4134
I1
s((g3912
g50
tp4135
(g3913
g3938
tp4136
(g3914
g2166
tp4137
tp4138
I1
s(g3958
g4042
g4030
g4032
tp4139
I1
s(g4066
g16
g8
tp4140
I2
s(g4053
tp4141
I3
s(g3941
g3943
g4049
g4050
tp4142
I1
s(g9
g12
g109
tp4143
I2
s(g3894
tp4144
I2
s(g30
g16
g3
g56
tp4145
I1
s(g3927
g3929
g3930
g3993
tp4146
I1
s(g3
g3
g109
tp4147
I2
s(g3
g59
g16
g9
tp4148
I2
s(g88
g41
g3
tp4149
I2
s(g3
g184
g11
tp4150
I1
s(g8
g30
g2
g56
tp4151
I2
s(g3949
g4038
tp4152
I1
s(g3905
g3880
g3883
tp4153
I2
s(g3900
g3925
g3928
g9
tp4154
I2
s(g3881
tp4155
I4
s(g4135
tp4156
I1
s(g3988
tp4157
I2
s(Vclean
p4158
Vup
p4159
g4018
g3943
tp4160
I1
s(g4085
tp4161
I1
s(g3919
g115
tp4162
I1
s(g4008
tp4163
I4
s(g58
g12
tp4164
I3
s(g3886
tp4165
I2
s(g3912
g3913
g3914
tp4166
I2
s(g8
g8
g13
tp4167
I2
s(g4085
g3927
g3929
tp4168
I1
s(g4000
(g115
g116
tp4169
tp4170
I1
s(g3946
g3949
g4038
tp4171
I1
s(g4085
g3927
tp4172
I1
s(g11
g56
tp4173
I1
s(g4006
tp4174
I4
s(g4158
g4159
g3941
g3943
tp4175
I1
s(g4009
tp4176
I2
s(g175
g16
g3
tp4177
I4
s(g3989
tp4178
I1
s(g3903
tp4179
I4
s(g58
g30
g88
tp4180
I2
s(g58
g8
g672
tp4181
I2
s(g4083
g4085
tp4182
I1
s(g3
g58
tp4183
I4
s(g3868
g3869
g3870
g3972
tp4184
I2
s(g3892
g3932
g573
tp4185
I1
s(g12
g9
g2
g12
tp4186
I1
s(g3883
g3886
tp4187
I2
s(g7
g184
g58
g12
tp4188
I2
s(g12
g59
g88
g41
tp4189
I2
s(g3958
g4042
tp4190
I2
s(g3927
tp4191
I1
s(g3897
g2116
g3963
tp4192
I2
s(g3990
g3980
g3896
g9
tp4193
I2
s(g3991
tp4194
I1
s(g9
g2
g12
g242
tp4195
I1
s(g115
tp4196
I10
s(g11
g9
g184
g58
tp4197
I2
s(g3976
g3874
g3978
tp4198
I1
s(g3946
tp4199
I1
s(g4159
g3941
g3943
g4049
tp4200
I1
s(g3
g58
g272
tp4201
I1
s(g3910
g3863
g3864
tp4202
I2
s(g58
g8
g12
g59
tp4203
I2
s(g3974
g3976
tp4204
I1
s(g3943
g4049
g4050
tp4205
I2
s(g4006
g4008
g3986
tp4206
I2
s(g3972
tp4207
I2
s(g3974
tp4208
I2
s(g630
g7
g12
tp4209
I1
s(g3887
g3955
g3956
g4015
tp4210
I2
s(g3910
tp4211
I2
s(g7
g12
tp4212
I2
s(g3888
g3958
g4042
g4030
tp4213
I2
s(g7
g8
g16
tp4214
I2
s(g3923
g3974
g3976
tp4215
I1
s(g8
g30
g2
tp4216
I2
s((g4051
g38
tp4217
(g3892
g3968
tp4218
g4069
g4070
tp4219
I1
s(g4053
g3923
tp4220
I1
s(g8
g7
g8
g16
tp4221
I2
s(g30
g3
tp4222
I2
s(g184
g11
g109
tp4223
I1
s(g7
g7
g184
tp4224
I2
s(g7
g184
tp4225
I2
s(g12
g2
g192
tp4226
I2
s(g3990
g3980
g3896
tp4227
I2
s(g4038
g4025
tp4228
I1
s(g4047
g3969
g4000
tp4229
I2
s(g3956
g4015
g3868
tp4230
I1
s(g3904
tp4231
I2
s(g630
g7
g12
g11
tp4232
I1
s(g3989
g3991
g4053
tp4233
I1
s(g3879
g3881
tp4234
I4
s(g88
g3
tp4235
I2
s(g3929
g3930
g3993
tp4236
I1
s(g3923
g3974
g3976
g3874
tp4237
I1
s(g3956
g4029
g3868
tp4238
I1
s(g3988
g3990
tp4239
I2
s(g4135
g4136
g4137
(g3915
g47
tp4240
tp4241
I1
s(g3908
g3887
g3955
tp4242
I2
s(g3
g58
g8
tp4243
I2
s(g652
g617
g630
tp4244
I1
s(g16
g8
g7
tp4245
I2
s(g3943
g4049
tp4246
I2
s(g3949
tp4247
I1
s(g30
g16
tp4248
I1
s(g3993
g4135
g4136
tp4249
I1
s(g16
g3
g56
g56
tp4250
I1
s(g184
g58
g12
g2
tp4251
I2
s(g16
g3
g4003
g8
tp4252
I2
s(g3869
g3870
g3871
g115
tp4253
I1
s(g608
g16
g9
g658
tp4254
I1
s(g242
g8
tp4255
I2
s(g7
g12
g11
g11
tp4256
I2
s(g4049
tp4257
I2
s(g652
g617
g630
g7
tp4258
I1
s(g8
g12
g59
tp4259
I2
s(g12
g242
g8
tp4260
I1
s(g4159
g4018
g3943
tp4261
I1
s(g9
g2
g12
g3
tp4262
I1
s(g11
g12
tp4263
I2
s(g2
g12
g3
g58
tp4264
I1
s(g30
g2
g56
tp4265
I2
s(g4218
g4069
g4070
tp4266
I1
s(g3869
tp4267
I4
s(g3988
g3990
g3980
tp4268
I2
s(g56
g9
g12
g109
tp4269
I2
s(g3886
g3888
g3958
tp4270
I2
s(g3952
g3937
g3939
tp4271
I1
s(g4023
g115
tp4272
I1
s(g3880
g3883
g3886
tp4273
I2
s(g9
g3897
g2116
tp4274
I2
s(g4051
g3892
g3893
g573
tp4275
I1
s(g4008
g3986
tp4276
I2
s(g4066
g16
g8
g7
tp4277
I2
s(g4083
g4085
g3927
tp4278
I1
s(g184
g58
g30
g88
tp4279
I2
s(g3956
g4029
tp4280
I2
s(g16
g9
g7
tp4281
I2
s(g59
g16
g9
tp4282
I2
s(g3947
g3918
g4023
tp4283
I1
s(g3879
g3881
g3908
tp4284
I2
s(g4159
g3941
g3943
tp4285
I1
s(g3937
tp4286
I1
s(g3
g56
tp4287
I1
s(g3942
g3944
(g4049
g587
tp4288
tp4289
I1
s(g9
g2116
g3912
tp4290
I2
s(g4082
g3900
g3925
tp4291
I2
s(g8
g7
tp4292
I2
s(g272
g12
tp4293
I1
s(g3
g4003
g8
tp4294
I2
s(g3896
g9
tp4295
I4
s(g2
g3
tp4296
I9
s(g88
g3
g3
tp4297
I2
s(g4069
g4070
g3946
tp4298
I1
s(g272
g3
g184
tp4299
I1
s(g3969
g4000
g4169
tp4300
I1
s(g8
g9
g58
tp4301
I2
s(g8
g13
tp4302
I2
s(g3986
g3988
tp4303
I2
s(g11
g8
tp4304
I2
s(g7
g7
tp4305
I2
s(g16
g8
tp4306
I2
s(g3879
g3881
g3884
tp4307
I2
s(g4288
(g4050
g4031
tp4308
tp4309
I1
s(g3980
tp4310
I6
s(g30
g11
g8
g9
tp4311
I2
s(g672
g2
tp4312
I2
s((g4159
g4041
tp4313
g3942
g3944
tp4314
I1
s(g3887
g3955
g3956
g4029
tp4315
I2
s(g9
g12
g11
tp4316
I1
s(g3884
g3887
g3955
tp4317
I2
s(g3974
g3976
g3874
tp4318
I1
s(g12
g11
g56
tp4319
I1
s(g3990
g3980
tp4320
I2
s(g3874
g3978
g3952
tp4321
I1
s(g3918
g3919
tp4322
I1
s(g272
g3
tp4323
I3
s(g3991
g4053
tp4324
I1
s(g3988
g3990
g3980
g3896
tp4325
I2
s(VU
p4326
g604
tp4327
I3
s(g3863
g3864
g3903
g3866
tp4328
I2
s(g3980
g3896
g9
tp4329
I2
s(g4007
tp4330
I2
s(g3958
g4042
g4030
tp4331
I2
s(g88
g3
g3
g109
tp4332
I2
s(g3869
g3870
g3871
tp4333
I2
s(g4218
g4069
g4070
g3946
tp4334
I1
s(g4081
g4083
g4085
tp4335
I1
s(g3928
g9
g2116
tp4336
I2
s(g4008
g3986
g3988
g3990
tp4337
I2
s(g9
g2116
tp4338
I2
s(g3874
g3978
tp4339
I1
s(g12
g2
g12
g9
tp4340
I1
s(g4085
g3927
g3929
g3930
tp4341
I1
s(g109
g8
g2
g9
tp4342
I1
s(g3927
g3929
tp4343
I1
s(g16
g3
g4003
tp4344
I2
s(g9
g58
tp4345
I4
s(g41
g184
tp4346
I3
s(g4030
g4032
g4047
tp4347
I1
s(g3993
g4135
tp4348
I1
s(g88
g41
g3
g16
tp4349
I2
s(g3944
g4288
g4308
tp4350
I1
s(g11
g8
g9
tp4351
I2
s(g3863
g3864
g3903
tp4352
I2
s(g11
g9
tp4353
I2
s(g12
g11
tp4354
I5
s(g3947
g3918
g3919
tp4355
I1
s(g4135
g4136
tp4356
I1
s(g2
g9
g12
g11
tp4357
I1
s(g88
g8
tp4358
I5
s(g3963
g3910
g3863
tp4359
I2
s(g3956
g4029
g3868
g3869
tp4360
I1
s(g3905
g3880
tp4361
I2
s(g2
g88
g8
tp4362
I4
s(g3991
g4053
g3923
g3974
tp4363
I1
s(g3925
g3928
tp4364
I2
s(g3955
g3956
g4015
tp4365
I2
s(g4047
tp4366
I2
s(g8
g2
tp4367
I1
s(g4080
g4082
g3900
tp4368
I2
s(g11
g8
g9
g58
tp4369
I2
s(g3932
g573
tp4370
I1
s(g4288
g4308
g4217
tp4371
I1
s(g4008
g3986
g3988
tp4372
I2
s(g4009
g3987
g3989
g3991
tp4373
I1
s(g4003
g8
tp4374
I2
s(g8
g7
g8
tp4375
I2
s(g3881
g3908
g3887
tp4376
I2
s(g2116
g3912
tp4377
I2
s(g3947
g3918
g3919
g115
tp4378
I1
s(g4032
g4047
g3969
g4000
tp4379
I2
s(g4025
tp4380
I1
s(g56
g9
g12
tp4381
I2
s(g4288
g4308
g4217
g4218
tp4382
I1
s(g58
g9
g2
tp4383
I1
s(g3904
g3905
g3880
g3883
tp4384
I2
s(g3894
g3947
g3918
g4023
tp4385
I1
s(g3956
tp4386
I4
s(g3868
tp4387
I4
s(g3
g16
g88
tp4388
I2
s(g2
g272
tp4389
I2
s(g617
g630
g7
g12
tp4390
I1
s(g3956
g4015
tp4391
I2
s(g3893
g573
g3894
g3947
tp4392
I1
s(g59
g88
g41
g3
tp4393
I2
s(g175
g16
g3
g4003
tp4394
I2
s(g12
g11
g109
tp4395
I2
s(g7
g8
tp4396
I2
s(g4051
g3892
g3932
g573
tp4397
I1
s(g58
g8
tp4398
I5
s(g3987
g3989
g3991
g4053
tp4399
I1
s(g3894
g3947
g3918
g3919
tp4400
I1
s(g11
g11
tp4401
I2
s(g4049
g4050
g4051
g3892
tp4402
I2
s(g16
g8
g7
g8
tp4403
I2
s(g3944
g4288
tp4404
I1
s(g3955
tp4405
I4
s(g13
g56
tp4406
I2
s(g617
g630
tp4407
I1
s(g3942
g3944
g4288
g4308
tp4408
I1
s(g4159
g4018
g3943
g4049
tp4409
I1
s(g184
g11
tp4410
I1
s(g4009
g3987
tp4411
I1
s(g3869
g3870
g3972
g115
tp4412
I1
s(g573
g3894
tp4413
I2
s(g3993
g4135
g4136
g4137
tp4414
I1
s(g3908
g3887
tp4415
I2
s(g272
g8
tp4416
I2
s(g3928
g9
g2116
g3912
tp4417
I2
s(g4070
g3946
tp4418
I1
s(g4070
g3946
g3949
g4038
tp4419
I1
s(g3978
g3952
g3937
tp4420
I1
s(g8
g672
g2
tp4421
I2
s(g3986
g3988
g3990
g3980
tp4422
I2
s(g3949
g4038
g4025
tp4423
I1
s(g3918
g4023
g115
tp4424
I1
s(g4047
g3969
g4000
g4169
tp4425
I1
s(g41
g3
g16
tp4426
I2
s(g109
g8
tp4427
I2
s(g16
g3
g56
tp4428
I1
s(g41
g184
g12
g11
tp4429
I2
s(g3879
g3881
g3884
g3887
tp4430
I2
s(g30
g3
g7
g7
tp4431
I2
s(g3870
g3972
g115
tp4432
I1
s(g3947
tp4433
I2
s(g3956
g4015
g3868
g3869
tp4434
I1
s(g184
g12
tp4435
I2
s(g9
g2116
g3912
g3913
tp4436
I2
s(g9
g12
tp4437
I3
s(g58
g8
g12
tp4438
I2
s(g30
g16
g3
tp4439
I1
s(g3
g184
g11
g109
tp4440
I1
s(g12
g109
tp4441
I3
s(g4029
g3868
tp4442
I1
s(g30
g88
tp4443
I2
s(g3904
g3905
g3880
tp4444
I2
s(g4000
tp4445
I2
s(g3986
g3988
g3990
tp4446
I2
s(g12
g59
tp4447
I2
s(g12
g58
g12
g2
tp4448
I1
s(g3952
tp4449
I1
s(g3987
tp4450
I1
s(g3978
tp4451
I1
s(g4003
g8
g30
tp4452
I2
s(g4053
g3923
g3974
tp4453
I1
s(g58
g272
g12
tp4454
I1
s(g41
g184
g2
tp4455
I2
s(g58
g30
tp4456
I2
s(g3897
g2116
g3963
g3910
tp4457
I2
s(g12
g3
g58
g272
tp4458
I1
s(g11
g109
tp4459
I3
s(g12
g56
tp4460
I3
s(g3974
g3976
g3874
g3978
tp4461
I1
s(g3881
g3884
g3887
g3955
tp4462
I2
s(g4042
g4030
g4032
g4047
tp4463
I1
s(g3868
g3869
tp4464
I4
s(g12
g242
tp4465
I1
s(g3888
g3958
g4042
tp4466
I2
s(g58
g272
tp4467
I1
s(g9
g7
tp4468
I2
s(g184
g58
g12
tp4469
I2
s(g58
g12
g2
tp4470
I3
s(g3871
tp4471
I2
s(g8
g672
tp4472
I2
s(g3
g4003
tp4473
I2
s(g3908
tp4474
I2
s(g184
g2
tp4475
I1
s(g3952
g3937
g3939
g3904
tp4476
I1
s(g41
g184
g12
tp4477
I2
s(g9
g30
g16
tp4478
I1
s(g3
g58
g272
g12
tp4479
I1
s(g3
g7
g7
g184
tp4480
I2
s(g3884
tp4481
I2
s(g2
g12
g3
tp4482
I1
s(g9
g3897
tp4483
I2
s(g4169
tp4484
I2
s(g630
g7
tp4485
I1
s(g3886
g3888
g3958
g4042
tp4486
I2
s(g3963
g3910
g3863
g3864
tp4487
I2
s(g3887
g3955
tp4488
I4
s(g9
g242
g8
tp4489
I1
s(g59
g88
g41
tp4490
I2
s(g3869
g3870
g3972
tp4491
I2
s(g3868
g3869
g3870
tp4492
I4
s(g3991
g4053
g3923
tp4493
I1
s(g3881
g3908
g3887
g3955
tp4494
I2
s(g3892
g3893
g573
tp4495
I1
s(g8
g8
tp4496
I2
s(g30
g11
tp4497
I2
s(g4006
g4008
tp4498
I4
s(g4003
g8
g30
g2
tp4499
I2
s(g175
g16
tp4500
I4
s(g3866
g3879
g3881
tp4501
I4
s(g56
g9
tp4502
I2
s(g3944
g4288
g4308
g4217
tp4503
I1
s(g3976
tp4504
I1
s(g3864
g3903
g3866
g3879
tp4505
I4
s(g184
g12
g11
g109
tp4506
I2
s(g3925
tp4507
I2
s(g8
g30
tp4508
I2
s(g12
g9
g2
tp4509
I1
s(g184
g175
tp4510
I6
s(g12
g3
g58
tp4511
I3
s(g12
g3
tp4512
I3
s(g3900
g3925
tp4513
I2
s(g3947
g3918
tp4514
I2
s(g3941
g3943
tp4515
I1
s(g3871
g115
tp4516
I1
s(g9
g30
tp4517
I1
s(g2
g12
g242
g8
tp4518
I1
s(g3879
tp4519
I4
s(g4030
g4032
g4047
g3969
tp4520
I1
s(g3880
tp4521
I2
s(g2
g272
g3
tp4522
I4
s(g9
g12
g11
g56
tp4523
I1
s(g3930
g3993
g4135
g4136
tp4524
I1
s(g58
g109
tp4525
I2
s(g8
g9
tp4526
I2
s(g3896
g9
g3897
tp4527
I2
s(g9
g2
tp4528
I2
s(g4080
g4082
g3900
g3925
tp4529
I2
s(g12
g59
g88
tp4530
I2
s(g2116
g3912
g3913
g3914
tp4531
I2
s(g3980
g3896
g9
g3897
tp4532
I2
s(g3937
g3939
g3904
g3905
tp4533
I1
s(g3880
g3883
tp4534
I2
s(g4313
g3942
g3944
g4288
tp4535
I1
s(g2
g192
tp4536
I2
s(g3884
g3887
tp4537
I2
s(g9
g58
g109
tp4538
I4
s(g16
g3
g59
tp4539
I2
s(g4038
g4025
g4026
tp4540
I1
s(g573
g3894
g3947
g3918
tp4541
I2
s(g4070
g3946
g3949
tp4542
I1
s(g4018
g3943
g4049
tp4543
I1
s(g3
g16
tp4544
I2
s(g3
g7
g7
tp4545
I2
s(g58
g12
g2
g12
tp4546
I1
s(g3881
g3884
tp4547
I2
s(g59
g9
tp4548
I1
s(g4030
tp4549
I2
s(g3941
g3943
g4049
tp4550
I1
s(g7
g184
g58
tp4551
I2
s(g12
g58
g12
tp4552
I1
s(g9
g242
tp4553
I1
s(g3870
g3871
tp4554
I2
s(g3925
g3928
g9
tp4555
I2
s(g16
g3
tp4556
I5
s(g3883
tp4557
I2
s(g3946
g3949
g4038
g4025
tp4558
I1
s(g4029
g3868
g3869
tp4559
I1
s(g272
g12
g109
tp4560
I1
s(g3918
g4023
tp4561
I1
s(g59
g9
g242
g8
tp4562
I1
s(g3929
g3930
g3993
g4135
tp4563
I1
s(g2116
tp4564
I10
s(g109
g8
g2
tp4565
I1
s(g272
g3
g184
g11
tp4566
I1
s(g3905
tp4567
I2
s((g4158
g38
tp4568
g4313
g3942
g3944
tp4569
I1
s(g4032
g4047
g3969
tp4570
I2
s(g3866
g3879
g3881
g3884
tp4571
I2
s(g41
g3
tp4572
I2
s(g11
g11
g12
g3
tp4573
I2
s(g16
g88
tp4574
I2
s(g59
g9
g242
tp4575
I1
s(g8
g16
tp4576
I2
s(g2
g88
tp4577
I2
s(g184
g58
g30
tp4578
I2
s(g3
g109
g56
tp4579
I2
s(g2
g12
g242
tp4580
I1
s(g272
g8
g8
g13
tp4581
I2
s(g3870
g3871
g115
tp4582
I1
s(g2
g56
tp4583
I2
s(g3
g3
tp4584
I2
s(g184
g58
tp4585
I4
s(g8
g8
g13
g56
tp4586
I2
s(g4049
g4050
tp4587
I2
s(g4069
g4070
tp4588
I1
s(g4042
g4030
g4032
tp4589
I1
s(g3955
g3956
tp4590
I4
s(g58
g272
g12
g109
tp4591
I1
s(g30
g11
g8
tp4592
I2
s(g59
g88
tp4593
I2
s(g4082
g3900
tp4594
I2
s(g2116
g3963
g3910
tp4595
I2
s(g16
g9
tp4596
I3
s(g4009
g3987
g3989
tp4597
I1
s(g9
g3897
g2116
g3963
tp4598
I2
s(g3930
g3993
g4135
tp4599
I1
s(g3869
g3870
tp4600
I4
s(g4023
tp4601
I1
s(g2
g12
g9
tp4602
I1
s(g3883
g3886
g3888
g3958
tp4603
I2
s(g8
g12
g59
g88
tp4604
I2
s(g3866
g3879
g3881
g3908
tp4605
I2
s(g608
g16
g9
tp4606
I1
s(g3
g7
tp4607
I2
s(g4070
tp4608
I1
s(g56
g56
tp4609
I1
s(g3939
g3904
g3905
g3880
tp4610
I2
s(g2
g9
tp4611
I1
s(g8
g12
tp4612
I2
s(g3963
tp4613
I2
s(g3955
g3956
g4015
g3868
tp4614
I1
s(g9
g184
g58
tp4615
I2
s(g9
g184
g58
g30
tp4616
I2
s(g3947
g3918
g4023
g115
tp4617
I1
s(g16
g88
g3
g3
tp4618
I2
s(g4288
tp4619
I1
s(g3939
tp4620
I2
s(g3864
g3903
g3866
tp4621
I4
s(g109
g56
tp4622
I2
s(g272
g12
g109
g8
tp4623
I1
s(g4029
g3868
g3869
g3870
tp4624
I1
s(g3
g59
tp4625
I2
s(g59
g16
g9
g7
tp4626
I2
s(g3910
g3863
tp4627
I2
sa.